(dp0
S'9891656'
p1
(iQuestion
Question
p2
(dp3
S'isAnswered'
p4
I01
sS'question_score'
p5
I112
sS'tags'
p6
(lp7
Vc#
p8
aVvisual-studio
p9
aVvisual-studio-2010
p10
asS'title'
p11
VVisual Studio: How to show Overloads in IntelliSense?
p12
sS'answer_score'
p13
I151
sS'question_body'
p14
S'<p>Once code has been written, the only way I know of to view the overloads for a method is to actually edit the method by deleting the Parenthesis <code>()</code> and reopening them.</p>\n\n<p>Is there a shortcut key that I could press to activate this instead of having to edit my files?</p>\n\n<p>For an example, please reference the <strong>ShowDialog Overload</strong> screen shot below:</p>\n\n<p><img src="http://i.stack.imgur.com/RZ9HI.png" alt="ShowDialog1 Overloads"></p>\n'
p15
sS'answer'
p16
VTry the keyboard shortcut Ctrl-Shift-Space. This corresponds to\u000aEdit.ParameterInfo, in case you've changed the default.\u000a\u000a
p17
sS'lastActivityDate'
p18
I1473751903
sS'question_id'
p19
I9891656
sS'approved'
p20
I01
sS'answerFetched'
p21
I01
sS'answer_id'
p22
I9891700
sbsS'3850019'
p23
(iQuestion
Question
p24
(dp25
g4
I01
sg5
I207
sg6
(lp26
Vvisual-studio
p27
aVvisual-studio-2010
p28
aVvisual-studio-2015
p29
asg11
VRunning two projects at once in Visual Studio
p30
sg13
I359
sg14
S'<p>I created a solution in Visual C# 2010 Express that contains two projects: one is the client, the other is the server. I would like to debug both at the same time, but I can only seem to run one of the projects during debugging.</p>\n\n<p>Is there a way to run both at once?</p>\n'
p31
sg16
VGo to Solution properties -> Common properties -> Startup Project and select\u000aMultiple startup projects\u000a\u000a
p32
sg18
I1469056178
sg19
I3850019
sg20
I01
sg21
I01
sg22
I3850044
sbsS'520593'
p33
(iQuestion
Question
p34
(dp35
g4
I01
sg5
I45
sg6
(lp36
Vasp.net
p37
aVwindows
p38
aVvisual-studio
p39
aVwindows-vista
p40
aVclear-cache
p41
asg11
VHow do you clear your Visual Studio cache on Windows Vista?
p42
sg13
I64
sg14
S'<p>I have a problem where my ASP.NET controls are not able to be referenced from the code behind files. </p>\n\n<p>I found a solution in Stack&nbsp;Overflow question <a href="http://stackoverflow.com/questions/38670/asp-net-controls-cannot-be-referenced-in-code-behind-in-visual-studio-2008">ASP.NET controls cannot be referenced in code-behind in Visual Studio 2008</a>.</p>\n\n<p>But I cannot seem to find my Visual Studio cache to clear it. I am using Visual Studio 2005 on Windows Vista.</p>\n'
p43
sg16
VThe accepted answer gave two locations: > here > > C:\u005cDocuments and\u000aSettings\u005cAdministrator\u005cLocal Settings\u005cTemp\u005cVWDWebCache > > and possibly here >\u000a> C:\u005cDocuments and Settings\u005cAdministrator\u005cLocal Settings\u005cApplication\u000aData\u005cMicrosoft\u005cWebsiteCache Did you try those? **Edited to add** On my Windows\u000aVista machine, it's located in %Temp%\u005cVWDWebCache and in\u000a%LocalAppData%\u005cMicrosoft\u005cWebsiteCache From your additional information\u000a(regarding team edition) this comes from Clear Client TFS Cache: > Clear\u000aClient TFS Cache > > Visual Studio and Team Explorer provide a caching\u000amechanism which can get out of sync. If I have multiple instances of a single\u000aTFS which can be connected to from a single Visual Studio client, that client\u000acan become confused. > > To solve it.. > > For Windows Vista delete contents\u000aof this folder > > %LocalAppData%\u005cMicrosoft\u005cTeam Foundation\u005c1.0\u005cCache\u000a\u000a
p44
sg18
I1470772307
sg19
I520593
sg20
I01
sg21
I01
sg22
I520684
sbsS'1749837'
p45
(iQuestion
Question
p46
(dp47
g4
I01
sg5
I67
sg6
(lp48
Vvisual-studio
p49
aVvisual-studio-2008
p50
aVsearch
p51
aVfind
p52
aVreplace
p53
asg11
VInclude only certain file types when searching in Visual Studio
p54
sg13
I52
sg14
S"<p>Often when I want to search through my code in Visual Studio, I know the thing I'm looking for is in some C# code. However, as I've used the same variable name in a JavaScript file, I have to wade through all those search results too. This gets even worse when the text I'm looking for is also used in a third-party JavaScript library that we've brought into the project: this can result in hundreds of search results.</p>\n\n<p>To compound things, our designers include HTML mock-ups of the pages in the same project, so I often find I'm hitting loads of search results in there too.</p>\n\n<p>I guess what I really want is to see results in my .cs, .aspx, and .ascx files, but not .js or .htm.</p>\n\n<p>Is there any way to do any of the following:</p>\n\n<ul>\n<li>Search only in files of a particular type (search only .cs files).</li>\n<li>Search only in files of any of a given set of types (search only .cs, .aspx and .ascx files).</li>\n<li>Search in all file types except a particular type or types (search everything except .js).</li>\n</ul>\n\n<p>I suspect not, in which case is there any crafty way of working around this?</p>\n"
p55
sg16
VIn the Find in Files dialog, there should be a field called Find Options. You\u000ashould be able to enter the extensions of fields you want to search in a field\u000ain this dialog: *.cs; *.aspx; *.ascx;\u000a\u000a
p56
sg18
I1474277328
sg19
I1749837
sg20
I01
sg21
I01
sg22
I1749858
sbsS'11488208'
p57
(iQuestion
Question
p58
(dp59
g4
I01
sg5
I62
sg6
(lp60
Vjquery
p61
aVvisual-studio
p62
aVintellisense
p63
aVvisual-studio-2012
p64
aVjavascript-intellisense
p65
asg11
VIntellisense doesn't work for JavaScript in Visual Studio 2012
p66
sg13
I116
sg14
S'<p>I have a clean, out-of-the-box installation of Visual&nbsp;Studio&nbsp;2012 Web Developer Express and for some reason the support for JavaScript (both jQuery, jQuery UI and other libraries) has disappeared. I believe it worked before and then for "no reason" it stopped.</p>\n\n<p>I\'ve browsed the web as supposed to and discovered four discrepancies.</p>\n\n<ol>\n<li><p>I don\'t have the key HKEY_CURRENT_USER\\Software\\Microsoft\\VisualStudio\\11.0\\JavaScriptLanguageService\\ImplicitReferences in my registry. In fact, I don\'t even have JavaScriptLanguageService directory.</p></li>\n<li><p>I\'ve checked that the referred file domWindows.js indeed is where the options point to.</p></li>\n<li><p>The output window under JavaScriptLanguageService is empty and nothing is being typed there while I develop and run my application.</p></li>\n<li><p>I\'ve referred to the jQuery-file that I\'m using through the options but it didn\'t produce any changes.</p></li>\n</ol>\n\n<p>All in all I get the error message saying that:</p>\n\n<blockquote>\n  <p>"intellisense was unable to determine an accurate completion list for this expression, The provided list contains all identifiers in the file"</p>\n</blockquote>\n\n<p>Any suggestions would be warmly appreciated.</p>\n'
p67
sg16
VKudos to CraigTP Summary: 1\u005c\u005c\u005c\u005c\u005c\u005c\u005c\u005c\u005c\u005c\u005c\u005c\u005c\u005c\u005c\u005c\u005c\u005c\u005c\u005c\u005c\u005c\u005c\u005c\u005c\u005c\u005c\u005c\u005c\u005c\u005c\u005c\u005c\u005c\u005c\u005c\u005c\u005c\u005c\u005c\u005c\u005c\u005c\u005c\u005c\u005c\u005c\u005c\u005c\u005c\u005c\u000a\u005c\u005c\u005c\u005c\u005c\u005c\u005c\u005c\u005c\u005c\u005c\u005c\u005c\u005c\u005c\u005c\u005c\u005c\u005c\u005c\u005c\u005c\u005c\u005c\u005c\u005c\u005c\u005c\u005c\u005c\u005c\u005c\u005c\u005c\u005c\u005c\u005c\u005c\u005c\u005c\u005c\u005c\u005c\u005c\u005c\u005c\u005c\u005c\u005c\u005c \u005c\u005c\u005c\u005c\u005c\u005c\u005c\u005c\u005c\u005c\u005c\u005c\u005c\u005c\u005c\u005c\u005c\u005c\u005c\u005c\u005c\u005c\u005c\u005c\u005c\u005c\u005c\u000a\u005c\u005c\u005c\u005c\u005c\u005c\u005c\u005c\u005c\u005c\u005c\u005c\u005c\u005c\u005c\u005c\u005c\u005c\u005c\u005c\u005c\u005c\u005c\u005c\u005c\u005c\u005c\u005c\u005c\u005c\u005c\u005c\u005c\u005c\u005c\u005c\u005c\u005c\u005c\u005c\u005c\u005c\u005c\u005c\u005c\u005c\u005c\u005c\u005c\u005c\u005c\u005c\u005c\u005c\u005c\u005c\u005c\u005c\u005c\u005c\u005c\u005c\u005c\u005c\u005c\u005c\u005c\u005c\u005c\u005c\u005c\u005c\u000a\u005c\u005c\u005c\u005c\u005c\u005c\u005c\u005c\u005c\u005c\u005c\u005c\u005c\u005c\u005c\u005c\u005c\u005c\u005c\u005c\u005c\u005c\u005c\u005c\u005c\u005c\u005c\u005c\u005c\u005c\u005c\u005c\u005c\u005c\u005c\u005c\u005c\u005c\u005c\u005c\u005c\u005c\u005c\u005c\u005c\u005c\u005c\u005c\u005c\u005c\u005c\u005c\u005c \u005c\u005c\u005c\u005c\u005c\u005c\u005c\u005c\u005c\u005c\u005c\u005c\u005c\u005c\u005c\u005c\u005c\u005c\u005c\u005c\u005c\u005c\u005c\u005c\u000a\u005c\u005c\u005c\u005c\u005c\u005c\u005c\u005c\u005c\u005c\u005c\u005c\u005c\u005c\u005c\u005c\u005c\u005c\u005c\u005c\u005c\u005c\u005c\u005c\u005c\u005c\u005c\u005c\u005c\u005c\u005c\u005c\u005c\u005c\u005c\u005c\u005c\u005c\u005c\u005c\u005c\u005c\u005c\u005c\u005c\u005c\u005c\u005c\u005c\u005c\u005c\u005c\u005c\u005c\u005c\u005c\u005c\u005c\u005c\u005c\u005c\u005c\u005c\u005c\u005c\u005c\u005c\u005c\u005c\u005c\u005c\u005c\u005c\u005c\u005c\u005c\u005c\u005c\u000a\u005c\u005c\u005c\u005c\u005c\u005c\u005c\u005c\u005c\u005c\u005c\u005c\u005c\u005c\u005c\u005c\u005c\u005c\u005c\u005c\u005c\u005c\u005c\u005c\u005c\u005c\u005c\u005c\u005c\u005c\u005c\u005c\u005c\u005c\u005c\u005c\u005c\u005c\u005c\u005c\u005c\u005c\u005c\u005c\u005c\u005c\u005c\u005c\u005c\u005c\u005c\u005c\u005c \u005c\u005c\u005c\u005c\u005c\u005c\u005c\u005c\u005c\u005c\u005c\u005c\u005c\u005c\u005c\u005c\u005c\u005c\u005c\u005c\u005c\u005c\u005c\u005c\u000a\u005c\u005c\u005c\u005c\u005c\u005c\u005c\u005c\u005c\u005c\u005c\u005c\u005c\u005c\u005c\u005c\u005c\u005c\u005c\u005c\u005c\u005c\u005c\u005c\u005c\u005c\u005c\u005c\u005c\u005c\u005c\u005c\u005c\u005c\u005c\u005c\u005c\u005c\u005c\u005c\u005c\u005c\u005c\u005c\u005c\u005c\u005c\u005c\u005c\u005c\u005c\u005c\u005c\u005c\u005c\u005c\u005c\u005c\u005c\u005c\u005c\u005c\u005c\u005c\u005c\u005c\u005c\u005c\u005c\u005c\u005c\u005c\u005c\u005c.\u000anavigate to the [Tools] > [Options] > Text Editor > JavaScript > IntelliSense\u000a> References options 2\u005c\u005c\u005c\u005c\u005c\u005c\u005c \u005c\u005c\u005c\u005c\u005c\u005c\u005c\u005c\u005c\u005c\u005c\u005c\u005c\u005c\u005c\u005c\u005c\u005c\u005c\u005c\u005c\u005c\u005c\u005c\u005c\u005c\u005c\u005c\u005c\u005c\u005c\u005c\u005c\u005c\u005c\u005c\u005c\u005c\u005c\u005c\u005c\u005c\u005c\u005c\u005c\u005c\u005c\u005c\u000a\u005c\u005c\u005c\u005c\u005c\u005c\u005c\u005c\u005c\u005c\u005c\u005c\u005c\u005c\u005c\u005c\u005c\u005c\u005c\u005c\u005c\u005c\u005c\u005c\u005c\u005c\u005c\u005c\u005c\u005c\u005c\u005c\u005c\u005c\u005c\u005c\u005c\u005c\u005c\u005c\u005c\u005c\u005c\u005c\u005c\u005c\u005c\u005c\u005c\u005c\u005c\u005c\u005c\u005c\u005c\u005c\u005c\u005c\u005c\u005c\u005c\u005c\u005c\u005c\u005c\u005c\u005c\u005c\u005c\u005c\u005c\u005c\u005c\u005c\u005c\u005c\u005c\u005c\u000a\u005c\u005c\u005c\u005c\u005c\u005c\u005c\u005c\u005c\u005c\u005c\u005c\u005c\u005c\u005c\u005c\u005c\u005c\u005c\u005c\u005c\u005c\u005c\u005c\u005c\u005c\u005c\u005c\u005c\u000a\u005c\u005c\u005c\u005c\u005c\u005c\u005c\u005c\u005c\u005c\u005c\u005c\u005c\u005c\u005c\u005c\u005c\u005c\u005c\u005c\u005c\u005c\u005c\u005c\u005c\u005c\u005c\u005c\u005c\u005c\u005c\u005c\u005c\u005c\u005c\u005c\u005c\u005c\u005c\u005c\u005c\u005c\u005c\u005c\u005c\u005c\u005c\u005c\u005c\u005c\u005c\u005c\u005c\u005c\u005c\u005c\u005c \u005c\u005c\u005c\u005c\u005c\u005c\u005c\u005c\u005c\u005c\u005c\u005c\u005c\u005c\u005c\u005c\u005c\u005c\u005c\u005c\u000a\u005c\u005c\u005c\u005c\u005c\u005c\u005c\u005c\u005c\u005c\u005c\u005c\u005c\u005c\u005c\u005c\u005c\u005c\u005c\u005c\u005c\u005c\u005c\u005c\u005c\u005c\u005c\u005c\u005c\u005c\u005c\u005c\u005c\u005c\u005c\u005c\u005c\u005c\u005c\u005c\u005c\u005c\u005c\u005c\u005c\u005c\u005c\u005c\u005c\u005c\u005c\u005c\u005c\u005c\u005c\u005c\u005c\u005c\u005c\u005c\u005c\u005c\u005c\u005c\u005c\u005c\u005c\u005c\u005c\u005c\u005c\u005c\u005c\u005c\u005c \u005c\u005c\u000a\u005c\u005c\u005c\u005c\u005c\u005c\u005c\u005c\u005c\u005c\u005c\u005c\u005c\u005c\u005c\u005c\u005c\u005c\u005c\u005c\u005c\u005c\u005c\u005c\u005c\u005c\u005c\u005c\u005c\u005c\u005c\u005c\u005c\u005c\u005c\u005c\u005c\u005c\u005c\u005c\u005c\u005c\u005c\u005c\u005c\u005c\u005c\u005c\u005c\u005c\u005c\u005c\u005c\u005c\u005c\u005c\u005c\u005c\u005c\u005c\u005c\u005c\u005c\u005c\u005c\u005c\u005c\u005c\u005c\u005c\u005c\u005c\u005c\u005c\u005c\u005c\u005c\u005c\u000a\u005c\u005c\u005c\u005c\u005c\u005c\u005c\u005c\u005c\u005c\u005c\u005c\u005c\u005c\u005c\u005c\u005c\u005c\u005c\u005c\u005c\u005c\u005c\u005c\u005c\u005c\u005c\u005c\u005c\u005c\u005c\u005c\u005c\u005c\u005c\u005c\u005c\u005c\u005c\u005c\u005c\u005c\u005c\u005c\u005c\u005c\u005c\u005c\u005c\u005c\u005c\u005c\u005c\u005c\u005c\u005c\u005c\u005c\u005c\u005c\u005c\u005c\u005c\u005c\u005c\u005c\u005c\u005c\u005c\u005c\u005c\u005c\u005c\u005c\u005c\u000a\u005c\u005c\u005c\u005c\u005c\u005c\u005c\u005c\u005c\u005c\u005c\u005c\u005c\u005c\u005c\u005c\u005c\u005c\u005c\u005c\u005c\u005c\u005c\u005c\u005c\u005c\u005c\u005c\u005c\u005c\u005c\u005c\u005c\u005c\u005c\u005c. select Implicit (Web) you can find\u000a"~/Scripts/_references.js" (if you want to put it in different place, change\u000ait here) 3\u005c\u005c\u005c\u005c\u005c\u005c\u005c\u005c\u005c\u005c\u005c\u005c\u005c\u005c\u005c\u005c\u005c\u005c\u005c\u005c\u005c\u005c\u005c\u005c\u005c\u005c\u005c\u005c\u005c\u005c\u005c\u005c\u005c\u005c\u005c\u005c\u005c\u005c\u005c\u005c\u005c\u005c\u005c\u005c\u005c\u005c\u005c\u005c\u005c\u005c\u005c\u005c\u005c\u005c\u005c\u005c\u005c\u005c\u005c\u005c\u005c\u005c\u005c\u005c\u005c\u005c\u005c\u005c\u000a\u005c\u005c\u005c\u005c\u005c\u005c\u005c\u005c\u005c\u005c\u005c\u005c\u005c\u005c\u005c\u005c\u005c\u005c\u005c\u005c\u005c\u005c\u005c\u005c\u005c\u005c\u005c\u005c\u005c\u005c\u005c\u005c\u005c\u005c\u005c\u005c\u005c\u005c\u005c\u005c\u005c\u005c\u005c\u005c\u005c\u005c\u005c\u005c\u005c\u005c\u005c\u005c\u005c\u005c\u005c\u005c\u005c\u005c\u005c\u005c\u005c\u005c\u005c\u005c\u005c \u005c\u005c\u005c\u005c\u005c\u005c\u005c\u005c\u005c\u005c\u005c\u005c\u000a\u005c\u005c\u005c\u005c\u005c\u005c\u005c\u005c\u005c\u005c\u005c\u005c\u005c\u005c\u005c\u005c\u005c\u005c\u005c\u005c\u005c\u005c\u005c\u005c\u005c\u005c\u005c\u005c\u005c\u005c\u005c\u005c\u005c\u005c\u005c\u005c\u005c\u005c\u005c\u005c\u005c\u005c\u005c\u005c\u005c\u005c\u005c\u005c\u005c\u005c\u005c\u005c\u005c\u005c\u005c\u005c\u005c\u005c\u005c\u005c\u005c\u005c\u005c\u005c\u005c\u005c\u005c\u005c\u005c\u005c\u005c\u005c\u005c\u005c\u005c\u005c\u005c\u005c\u000a\u005c\u005c\u005c\u005c\u005c\u005c\u005c\u005c\u005c\u005c\u005c\u005c\u005c\u005c\u005c\u005c\u005c\u005c\u005c\u005c\u005c\u005c\u005c\u005c\u005c\u005c\u005c\u005c\u005c\u005c\u005c\u005c\u005c\u005c\u005c\u005c\u005c\u005c\u005c\u005c\u005c\u005c\u005c\u005c\u005c\u005c\u005c\u005c\u005c\u005c\u005c\u005c\u005c\u005c\u005c\u005c\u005c\u005c\u005c\u005c\u005c\u005c\u005c\u005c\u005c \u005c\u005c\u005c\u005c\u005c\u005c\u005c\u005c\u005c\u005c\u005c\u005c\u000a\u005c\u005c\u005c\u005c\u005c\u005c\u005c\u005c\u005c\u005c\u005c\u005c\u005c\u005c\u005c\u005c\u005c\u005c\u005c\u005c\u005c\u005c\u005c\u005c\u005c\u005c\u005c\u005c\u005c\u005c\u005c\u005c\u005c\u005c\u005c\u005c\u005c\u005c\u005c\u005c\u005c\u005c\u005c\u005c\u005c\u005c\u005c\u005c\u005c\u005c\u005c\u005c\u005c\u005c\u005c\u005c\u005c\u005c\u005c\u005c\u005c\u005c\u005c\u005c\u005c\u005c\u005c\u005c\u005c\u005c\u005c\u005c\u005c\u005c\u005c\u005c\u005c\u005c\u000a\u005c\u005c\u005c\u005c\u005c\u005c\u005c\u005c\u005c\u005c\u005c\u005c\u005c\u005c\u005c\u005c\u005c\u005c\u005c\u005c\u005c\u005c\u005c\u005c\u005c\u005c\u005c\u005c\u005c\u005c\u005c\u005c\u005c\u005c\u005c\u005c\u005c\u005c\u005c\u005c\u005c\u005c\u005c\u005c\u005c\u005c\u005c\u005c\u005c\u005c\u005c\u005c\u005c\u005c\u005c\u005c\u005c\u005c\u005c\u005c\u005c\u005c\u005c\u000a\u005c\u005c\u005c\u005c\u005c\u005c\u005c\u005c\u005c\u005c\u005c\u005c\u005c\u005c\u005c\u005c\u005c\u005c\u005c\u005c\u005c\u005c\u005c\u005c\u005c\u005c\u005c\u005c\u005c\u005c\u005c\u005c\u005c\u005c\u005c\u005c\u005c\u005c\u005c\u005c\u005c\u005c\u005c\u005c\u005c\u005c\u005c\u005c\u005c\u005c\u005c\u005c\u005c\u005c\u005c\u005c\u005c\u005c\u005c\u005c\u005c\u005c\u005c\u005c. go to\u000a~/Scripts and add new item "_references.js" 4\u005c\u005c\u005c\u005c\u005c\u005c\u005c\u005c\u005c\u005c\u005c\u005c\u005c\u005c\u005c\u005c\u005c\u005c\u005c\u005c\u005c\u005c\u005c\u005c\u005c\u005c\u005c\u005c\u005c\u005c\u005c\u005c\u005c\u000a\u005c\u005c\u005c\u005c\u005c\u005c\u005c\u005c\u005c\u005c\u005c\u005c\u005c\u005c\u005c\u005c\u005c\u005c\u005c\u005c\u005c\u005c\u005c\u005c\u005c\u005c\u005c\u005c\u005c\u005c\u005c\u005c\u005c\u005c\u005c\u005c\u005c\u005c\u005c\u005c\u005c\u005c\u005c\u005c\u005c\u005c\u005c\u005c\u005c\u005c\u005c\u005c\u005c\u005c\u005c\u005c\u005c\u005c\u005c\u005c\u005c\u005c\u005c\u005c\u005c\u005c\u005c\u005c\u005c\u005c\u005c\u005c\u005c\u005c\u005c\u005c\u005c\u005c\u000a\u005c\u005c\u005c\u005c\u005c \u005c\u005c\u005c\u005c\u005c\u005c\u005c\u005c\u005c\u005c\u005c\u005c\u005c\u005c\u005c\u005c\u005c\u005c\u005c\u005c\u005c\u005c\u005c\u005c\u005c\u005c\u005c\u005c\u005c\u005c\u005c\u005c\u005c\u005c\u005c\u005c\u005c\u005c\u005c\u005c\u005c\u005c\u005c\u005c\u005c\u005c\u005c\u005c\u005c\u005c\u005c\u005c\u005c\u005c\u005c\u005c\u005c\u005c\u005c\u005c\u005c\u005c\u005c\u005c\u005c\u005c\u005c\u005c\u005c\u005c\u005c\u005c\u000a\u005c\u005c\u005c\u005c\u005c\u005c\u005c\u005c\u005c\u005c\u005c\u005c\u005c\u005c\u005c\u005c\u005c\u005c\u005c\u005c\u005c\u005c\u005c\u005c\u005c\u005c\u005c\u005c\u005c\u005c\u005c\u005c\u005c\u005c\u005c\u005c\u005c\u005c\u005c\u005c\u005c\u005c\u005c\u005c\u005c\u005c\u005c\u005c\u005c\u005c\u005c\u005c\u005c\u005c\u005c\u005c\u005c\u005c\u005c\u005c\u005c\u005c\u005c\u005c\u005c\u005c\u005c\u005c\u005c\u005c\u005c\u005c\u005c\u005c\u005c\u005c\u005c\u005c\u000a\u005c\u005c\u005c\u005c\u005c \u005c\u005c\u005c\u005c\u005c\u005c\u005c\u005c\u005c\u005c\u005c\u005c\u005c\u005c\u005c\u005c\u005c\u005c\u005c\u005c\u005c\u005c\u005c\u005c\u005c\u005c\u005c\u005c\u005c\u005c\u005c\u005c\u005c\u005c\u005c\u005c\u005c\u005c\u005c\u005c\u005c\u005c\u005c\u005c\u005c\u005c\u005c\u005c\u005c\u005c\u005c\u005c\u005c\u005c\u005c\u005c\u005c\u005c\u005c\u005c\u005c\u005c\u005c\u005c\u005c\u005c\u005c\u005c\u005c \u005c\u005c\u000a\u005c\u005c\u005c\u005c\u005c\u005c\u005c\u005c\u005c\u005c\u005c\u005c\u005c\u005c\u005c\u005c\u005c\u005c\u005c\u005c\u005c\u005c\u005c\u005c\u005c\u005c\u005c\u005c\u005c\u005c\u005c\u005c\u005c\u005c\u005c\u005c\u005c\u005c\u005c\u005c\u005c\u005c\u005c\u005c\u005c\u005c\u005c\u005c\u005c\u005c\u005c\u005c\u005c\u005c\u005c\u005c\u005c\u005c\u005c\u005c\u005c\u005c\u005c\u005c\u005c\u005c\u005c\u005c\u005c\u005c\u005c\u005c\u005c\u005c\u005c\u005c\u005c\u005c\u000a\u005c\u005c\u005c \u005c\u005c\u005c\u005c\u005c\u005c\u005c\u005c\u005c\u005c\u005c\u005c\u005c\u005c\u005c\u005c\u005c\u005c\u005c\u005c\u005c\u005c\u005c\u005c\u005c\u005c\u005c\u005c\u005c\u005c\u005c\u005c\u005c\u005c\u005c\u005c\u005c\u005c\u005c\u005c\u005c\u005c\u005c\u005c\u005c\u005c\u005c\u005c\u005c\u005c\u005c\u005c\u005c\u005c\u005c\u005c\u005c\u005c\u005c\u005c\u005c\u005c\u005c\u005c\u005c\u005c\u005c\u005c\u005c\u005c\u005c\u005c\u005c\u005c\u000a\u005c\u005c\u005c\u005c\u005c\u005c. add /// in "_references.js" or /// Happy coding :) Edit note: Remember\u000ato put jquery-1.7.1-vsdoc.js in the same folder with jquery-1.7.1.js After\u000amaking above mentioned changes, if it is still not working try restarting\u000avisual studio.\u000a\u000a
p68
sg18
I1469721438
sg19
I11488208
sg20
I01
sg21
I01
sg22
I12016530
sbsS'12534694'
p69
(iQuestion
Question
p70
(dp71
g4
I01
sg5
I213
sg6
(lp72
Vvisual-studio-2010
p73
aVvisual-studio
p74
aVvisual-studio-2012
p75
aVvisual-studio-2013
p76
asg11
Vvisual studio 2012 / 2013 single click opens file
p77
sg13
I396
sg14
S"<p>In my Visual Studio 2012 solution explorer, when I single click a filename it opens it.  This was different from VS2010 (required a double click).  Is there a way to make double-click the 'view file' command?</p>\n"
p78
sg16
VThis is where you change that behavior (in VS2012, VS 2013 and VS 2015):\u000a![enter image description here](http://i.stack.imgur.com/iboRQ.jpg)\u000a\u000a
p79
sg18
I1474382741
sg19
I12534694
sg20
I01
sg21
I01
sg22
I12534904
sbsS'363292'
p80
(iQuestion
Question
p81
(dp82
g4
I01
sg5
I69
sg6
(lp83
Vc++
p84
aVvisual-studio
p85
aVvisual-studio-2008
p86
aVvisual-c++
p87
asg11
VWhy is Visual C++ lacking refactor functionality?
p88
sg13
I67
sg14
S"<p>When programming in C++ in Visual Studio 2008, why is there no functionality like that seen in the refactor menu when using C#?</p>\n\n<p>I use <strong>Rename</strong> constantly and you really miss it when it's not there. I'm sure you can get plugins that offer this, but why isn't it integrated in to the IDE when using C++? Is this due to some gotcha in the way that C++ must be parsed?</p>\n"
p89
sg16
VThe syntax and semantics of C++ make it **incredibly difficult** to correctly\u000aimplement refactoring functionality. It's possible to implement something\u000arelatively simple to cover 90% of the cases, but in the remaining 10% of cases\u000athat simple solution will horribly break your code by changing things you\u000anever wanted to change. Read http://yosefk.com/c++fqa/defective.html#defect-8\u000afor a brief discussion of the difficulties that any refactoring code in C++\u000ahas to deal with. Microsoft has evidently decided to punt on this particular\u000afeature for C++, leaving it up to third-party developers to do what they can.\u000a\u000a
p90
sg18
I1476512378
sg19
I363292
sg20
I01
sg21
I01
sg22
I363338
sbsS'2090369'
p91
(iQuestion
Question
p92
(dp93
g4
I01
sg5
I35
sg6
(lp94
Vvisual-studio
p95
aVnamespaces
p96
aVbuildaction
p97
asg11
VError "A namespace does not directly contain members such as fields or methods"
p98
sg13
I53
sg14
S'<p>I\'m trying to build my C# project and I\'m getting the error message "A namespace does not directly contain members such as fields or methods".  It is flagging the first character (the less than symbol) of the app.config file.</p>\n\n<p>I\'ve checked all of my files for places where there are variables or functions directly inside of a namespace--found nothing.  The app.config looks fine.</p>\n\n<p>Google is failing me and I\'m pulling my hair out.  What could be causing this error?</p>\n'
p99
sg16
VFigures! As soon as I finally break down and ask the question that I find the\u000aanswer... The app.config file properties section (somehow) listed the Build\u000aAction of "Compile" when it should be set to "None". How in the world did it\u000aget changed? I know I didn't change it. Grrr... Oh well, at least it's\u000abuilding now. Hopefully someone else will benefit from my hairloss.\u000a\u000a
p100
sg18
I1476976894
sg19
I2090369
sg20
I01
sg21
I01
sg22
I2090381
sbsS'3554658'
p101
(iQuestion
Question
p102
(dp103
g4
I01
sg5
I60
sg6
(lp104
Vc#
p105
aVvisual-studio
p106
asg11
VHow to use a Class from one C# project with another C# project
p107
sg13
I39
sg14
S'<p>In the same solution, i have two projects P1 and P2. how can i make use of a class of P1 in P2 ?</p>\n'
p108
sg16
VSimply add reference to P1 from P2\u000a\u000a
p109
sg18
I1476772661
sg19
I3554658
sg20
I01
sg21
I01
sg22
I3554671
sbsS'9435642'
p110
(iQuestion
Question
p111
(dp112
g4
I01
sg5
I22
sg6
(lp113
Vvisual-studio
p114
aVvisual-studio-2010
p115
aVeditor
p116
aVhighlighting
p117
asg11
VHow to get Visual Studio 2010 to highlight instances of a variable
p118
sg13
I21
sg14
S"<p>I'm new using vs2010 I've read that when you click on a variable its suppose to highlight all the instances of that variable in that file and highlight red or show an error as well where the number line is located. How can I get vs2010 to do this because by default it doesn't do that for me and it would be great for the highlighting to work. Thanks.</p>\n"
p119
sg16
VThe **Highlight all occurrences of selected word** extension in Visual Studio\u000aGallery does just that. ![Highlight all occurrences of selected\u000aword](http://i.stack.imgur.com/cfMzD.png)\u000a\u000a
p120
sg18
I1469537097
sg19
I9435642
sg20
I01
sg21
I01
sg22
I9436592
sbsS'4669704'
p121
(iQuestion
Question
p122
(dp123
g4
I01
sg5
I31
sg6
(lp124
Vvisual-studio
p125
aVvisual-studio-2010
p126
aVvisual-web-developer
p127
asg11
VHow do I install the Visual Web Developer feature for Visual Studio 2010
p128
sg13
I34
sg14
S'<p>I have Visual Studio 2010 Premium installed, and I want to install the Silverlight 4 SDK.</p>\n\n<p>The SDK says that it requires the Visual Web Developer feature for Visual Studio 2010.  Any idea as to how to install, or activate this feature?</p>\n\n<hr>\n\n<p><img src="http://i.stack.imgur.com/orCLl.png" alt="enter image description here"></p>\n'
p129
sg16
VRun the Visual Studio installer and double check the installed components.\u000aMake sure Web Developer is enabled (Web Developer should be part of the\u000astandard installation for VS 2010 Premium) and then hit OK. Once the\u000ainstallation has completed try installing the Silverlight SDK again.\u000a\u000a
p130
sg18
I1470667494
sg19
I4669704
sg20
I01
sg21
I01
sg22
I4669738
sbsS'160045'
p131
(iQuestion
Question
p132
(dp133
g4
I01
sg5
I126
sg6
(lp134
Vvisual-studio
p135
aVdebugging
p136
asg11
VBreak when a value changes using the Visual Studio debugger
p137
sg13
I76
sg14
S"<p>Is there a way to place a watch on variable and only have Visual Studio break when that value changes?</p>\n\n<p>It would make it so much easier to find tricky state issues.</p>\n\n<p>Can this be done?</p>\n\n<p>Breakpoint conditions still need a breakpoint set, and I'd rather set a watch and let Visual Studio set the breakpoints at state changes.</p>\n"
p138
sg16
VIn the Visual Studio 2005 menu: _Debug_ -> _New Breakpoint_ -> _New Data\u000aBreakpoint_ Enter: &myVariable;\u000a\u000a
p139
sg18
I1468589289
sg19
I160045
sg20
I01
sg21
I01
sg22
I160074
sbsS'267843'
p140
(iQuestion
Question
p141
(dp142
g4
I01
sg5
I96
sg6
(lp143
Vvisual-studio
p144
aVeditor
p145
aVunderline
p146
asg11
VVisual Studio Editor does not underline errors anymore
p147
sg13
I205
sg14
S"<p>My Visual Studio (2008) Editor has stopped to underline Errors (this nifty wavy red lines). I can't really tell when, but it can be related to the installation of .Net Framework 3.5 SP 1 or the MVC Beta (which I guess is unlikely). Furthermore have I installed and uninstalled both CodeRush and Resharper for evaluation purposes (decided not to keep either one of them).</p>\n\n<p>Does anyone know the problem and how to restore this functionality again?</p>\n"
p148
sg16
S'<p>Have you checked <kbd>Tools</kbd>\xe2\x86\x92<kbd>Options...</kbd>\xe2\x86\x92<kbd>Text Editor</kbd>\xe2\x86\x92<kbd>C#</kbd>\xe2\x86\x92<kbd>Advanced</kbd>\xe2\x86\x92<kbd>Underline errors in the editor</kbd>?</p>\n\n<p>I usually like to reset my settings after messing around with plugins, as they tend to mess with settings: <kbd>Tools</kbd>\xe2\x86\x92<kbd>Import and Export Settings...</kbd>\xe2\x86\x92<kbd>Reset all settings</kbd>.</p>\n'
p149
sS'parseFailed'
p150
I01
sg18
I1474546353
sg19
I267843
sg20
I01
sg21
I01
sg22
I267852
sbsS'282377'
p151
(iQuestion
Question
p152
(dp153
g4
I01
sg5
I66
sg6
(lp154
Vvisual-studio
p155
aVclass
p156
aVabstract-class
p157
asg11
VVisual Studio: How do I show all classes inherited from a base class?
p158
sg13
I37
sg14
S'<p>In Visual Studio, How do I show all classes inherited from a base class?  </p>\n\n<p><strong>For example</strong>, in ASP.NET MVC there are several \'<a href="http://msdn.microsoft.com/en-us/library/system.web.mvc.actionresult.aspx">ActionResult</a>\' types -- and they all inherit from / implement the base class <code>ActionResult</code>.  </p>\n\n<p>It looks like unless you just \'know\' that <code>View</code> and <code>Json</code> are valid <code>ActionResult</code> types, there is no way you can easily find this information out.  </p>\n\n<p><em>Please prove me wrong.</em></p>\n\n<p>Is there something in the object browser that makes this easy to find out?</p>\n\n<p>I\'m even up for suggestions of tools outside of Visual Studio to discover this information about various classes.  For example: is there something in Resharper that will help me out?</p>\n'
p159
sg16
VSure, Resharper can do this. And much more. Just right click on type name in\u000aany place and choose "Go To Inheritor" in context menu. "Go To Inheritor" can\u000abe also applied to method for navigating to overrides and an interface\u000amethod's implementations. For an interface you could call "Find Usages\u000aAdvanced" againd, just right click) where to find all extendings and\u000aimplementations. For a type - derived types. And my favorite feature - click\u000awith holding Control on any type/method for navigating to its declaration. I\u000athink it's a must-have tool for .net developers.\u000a\u000a
p160
sg18
I1470732433
sg19
I282377
sg20
I01
sg21
I01
sg22
I282386
sbsS'8977333'
p161
(iQuestion
Question
p162
(dp163
g4
I01
sg5
I65
sg6
(lp164
Vvb.net
p165
aVvisual-studio
p166
aVvisual-studio-2010
p167
aVintellisense
p168
asg11
VVB.NET IntelliSense : Disable newline on ENTER autocomplete
p169
sg13
I39
sg14
S'<p>When editing C# code in Visual Studio 2010, the <kbd>ENTER</kbd> key makes IntelliSense complete the current suggestion, without adding a new line.</p>\n\n<p>In VB.NET, the default IntelliSense behavior for the <kbd>ENTER</kbd> key is to add a new line after completing the current suggestion.</p>\n\n<p>How can I configure IntelliSense to change the VB.NET behavior to the C# one?</p>\n\n<p>I already know that I could press <kbd>TAB</kbd> or <kbd>SPACE</kbd>, but out of habit I always end up hitting <kbd>ENTER</kbd> (and changing line).</p>\n'
p170
sg16
VUnfortunately the set of trigger keys for intellisense completion is not a\u000aconfigurable item for VB.Net. There is no way in the default Visual Studio\u000aenvironment to change this behavior. It would be possible to develop a plugin\u000aof sorts to accomplish this. However that's a pretty extreme measure.\u000a\u000a
p171
sg18
I1470750073
sg19
I8977333
sg20
I01
sg21
I01
sg22
I8977389
sbsS'82971'
p172
(iQuestion
Question
p173
(dp174
g4
I01
sg5
I112
sg6
(lp175
Vvisual-studio
p176
aVvisual-studio-2008
p177
asg11
VHow to automatically remove trailing whitespace in Visual Studio 2008?
p178
sg13
I58
sg14
S"<p>Is it possible to configure Visual Studio 2008 to automatically remove whitespace characters at the end of each line when saving a file? There doesn't seem to be a built-in option, so are there any extensions available to do this?</p>\n"
p179
sg16
VCodeMaid is a very popular Visual Studio extension and does this automatically\u000aalong with other useful cleanups. * Download:\u000ahttps://github.com/codecadwallader/codemaid/releases/tag/v0.4.3 *\u000aDocumentation: http://www.codemaid.net/documentation/#cleaning I set it to\u000aclean up a file on save, which I believe is the default.\u000a\u000a
p180
sg18
I1474761221
sg19
I82971
sg20
I01
sg21
I01
sg22
I11314642
sbsS'700086'
p181
(iQuestion
Question
p182
(dp183
g4
I01
sg5
I46
sg6
(lp184
Vvisual-studio
p185
asg11
VHow do you default a new class to public when creating it in Visual Studio?
p186
sg13
I40
sg14
S'<p>When I right click in the Solution of a C# Visual Studio project and select Add... > Class... it creates a class without a public modifier. How do I get Visual Studio (2008) to default the class to a public class?</p>\n'
p187
sg16
VYou need to modify the file located in C:\u005cProgram Files\u005cMicrosoft Visual\u000aStudio 9.0\u005cCommon7\u005cIDE\u005cItemTemplates\u005cCSharp\u005cCode\u005c1033. **Visual Studio 2010\u000a(10.0) and below:** There is a zip file in there called Class.zip. Unpack\u000athis, edit the file to put in your public keyword then re-pack it (make sure\u000ayou backup the original). After this, make sure VS rebuilds it's cache (which\u000ais just the zipfiles unzipped into directories in C:\u005cProgram Files\u005cMicrosoft\u000aVisual Studio 9.0\u005cCommon7\u005cIDE\u005cItemTemplatesCache) by opening a Visual Studio\u000acommand shell and execute the following command: devenv /installvstemplates\u000a**Visual Studio 2012 (11.0) and up:** See the answer by @JochemKempe, as it's\u000amuch easier to change this now, just by editing a single file (no unzipping or\u000arezipping). **UPDATE:** Don't forget to open your preferred text editor with\u000aadmin privileges before you do any edit.\u000a\u000a
p188
sg18
I1477025765
sg19
I700086
sg20
I01
sg21
I01
sg22
I700121
sbsS'392473'
p189
(iQuestion
Question
p190
(dp191
g4
I01
sg5
I391
sg6
(lp192
Vvisual-studio
p193
asg11
VHow do I add an existing directory tree to a project in Visual Studio?
p194
sg13
I651
sg14
S'<p>The issue is simple really. Instead of creating folders in Visual Studio, I create a directory structure for my project on the file system. How do I include all the folders and files in a project, keeping the structure?</p>\n\n<p>If I "Add Existing File" on a folder named Services and navigate to a file in the directory structure .. Services > AccountManagement > CreateAccount.cs, it appears in Visual Studio like so: Services > CreateAccount.cs. I do not want this.</p>\n\n<p>I have an entire directory structure worked out already, as I am mimicking our client developers using the same structure for organization. How do I add all the folders and files to the project in Visual Studio? Or do I have to do what most Microsoft users do and "put up with it" and recreate each and every folder through Visual Studio?</p>\n'
p195
sg16
VYou need to put your directory structure in your project directory. And then\u000aclick "Show All Files" icon in the top of Solution Explorer toolbox. After\u000athat, the added directory will be shown up. You will then need to select this\u000adirectory, right click, and choose "Include in Project." ![enter image\u000adescription here](http://i.stack.imgur.com/ub2DI.png) ![enter image\u000adescription here](http://i.stack.imgur.com/oIDP1.png)\u000a\u000a
p196
sg18
I1469397676
sg19
I392473
sg20
I01
sg21
I01
sg22
I392477
sbsS'7021116'
p197
(iQuestion
Question
p198
(dp199
g4
I01
sg5
I27
sg6
(lp200
V.net
p201
aVvisual-studio-2010
p202
aVvisual-studio
p203
aVdebugging
p204
aVvisual-studio-debugging
p205
asg11
VC# VS2010 Entering break mode failed
p206
sg13
I49
sg14
S"<p>I was having some problems with my breakpoints later in my program saying that they would not be hit because the source code and the compiled code was different. I decided to put a break point on my public MainWindow() function, and see what happened.</p>\n\n<p>Now I get the error that Entering break mode failed for the following reason: Source file 'F:\\cAdmin\\OO\\OO\\MainWindow.xaml.cs' does not belong to the project being debugged.</p>\n\n<p>I find this funny because my project is stored on my flash drive (L:) and not F:. </p>\n\n<p>I have rebuilt my project and cleaned it (many times), restarted my computer, moved my Flash drive, and anything else that I can think of.</p>\n"
p207
sg16
VDelete the solution user options (.suo) file. If you experience "funny"\u000adebugging issues, it usually means the suo file is corrupt. Delete the\u000asolutions suo file. This has fixed weird debugging problems with breakpoints\u000aevery time for me. Note, you will lose your solution settings, such as\u000abookmarks, breakpoints, and such. See Visual Studio 2008 - The breakpoint\u000acannot be hit.\u000a\u000a
p208
sg18
I1469558518
sg19
I7021116
sg20
I01
sg21
I01
sg22
I7021171
sbsS'931406'
p209
(iQuestion
Question
p210
(dp211
g4
I01
sg5
I26
sg6
(lp212
Vc#
p213
aVvisual-studio
p214
aVvisual-studio-2005
p215
aVformatting
p216
asg11
VFormatting - at once - all the files in a Visual Studio project
p217
sg13
I20
sg14
S"<p>I am interested in formatting all the files in a Visual Studio (ver. 2005)  project all at once.</p>\n\n<p>Currently, there is a way to format a single document by doing something like <strong>Edit->Advanced->Format Document</strong>. However, I don't see a single command to format all the files of a project all at once.</p>\n\n<p>Any idea how to do that?</p>\n"
p218
sg16
VTim Abell wrote a macro to do this on his blog: > Here's a handy macro script\u000afor visual studio I knocked together today. It runs "edit, format document" on\u000aevery document of the listed file types. > > You have to keep an eye on it as\u000ait's interactive and does sometimes pop up a message and wait for an answer. >\u000a> You can get the vb file at http://github.com/timabell/vs-formatter-macro\u000aMore info at http://wiki.github.com/timabell/vs-formatter-macro The original\u000acode is available at the blog post. Note that this is older than the version\u000aavailable on github above.\u000a\u000a
p219
sg18
I1472045792
sg19
I931406
sg20
I01
sg21
I01
sg22
I931425
sbsS'661606'
p220
(iQuestion
Question
p221
(dp222
g4
I01
sg5
I87
sg6
(lp223
Vvisual-studio
p224
aVvisual-c++
p225
aVlinker
p226
aVwarnings
p227
aVcgal
p228
asg11
VVisual C++: How to disable specific linker warnings?
p229
sg13
I58
sg14
S"<p>I'm using a library from CGAL which during the linking stage of my code compilation produces a lot of linking warnings of this form:</p>\n\n<pre><code>warning LNK4099: PDB 'vc80.pdb' was not found with 'gmp-vc80-mt-sgd.lib' or at 'vc80.pdb'; linking object as if no debug info\n</code></pre>\n\n<p>How do I turn off this specific linker warning under Visual C++/Studio 2008?</p>\n\n<p>Note that I do not have any control on the external (CGAL) library which I am using. I cannot/donot want to get into recompiling the external library. Hence, the need to fix the messages at my end.</p>\n"
p230
sg16
VAdd the following as a additional linker option: /ignore:4099 This is in\u000aProperties->Linker->Command Line\u000a\u000a
p231
sg18
I1466455409
sg19
I661606
sg20
I01
sg21
I01
sg22
I662248
sbsS'5755942'
p232
(iQuestion
Question
p233
(dp234
g4
I01
sg5
I368
sg6
(lp235
Vvisual-studio
p236
asg11
VHow do you auto format code in visual studio?
p237
sg13
I597
sg14
S'<p>I know Visual Studio can auto format to make my methods and loops indented properly, but I cannot find the setting.</p>\n'
p238
sg16
VTo format a selection: Ctrl+K, Ctrl+F To format a document: Ctrl+K, Ctrl+D See\u000athe pre-defined keyboard shortcuts. (These two are Edit.FormatSelection and\u000aEdit.FormatDocument.)\u000a\u000a
p239
sg18
I1477647130
sg19
I5755942
sg20
I01
sg21
I01
sg22
I5755979
sbsS'507343'
p240
(iQuestion
Question
p241
(dp242
g4
I01
sg5
I1277
sg6
(lp243
Vvisual-studio
p244
aVgit
p245
asg11
VUsing Git with Visual Studio
p246
sg13
I993
sg14
S'<p>As a long-time <a href="http://en.wikipedia.org/wiki/Microsoft_Visual_SourceSafe">Visual SourceSafe</a> user (and hater) I was discussing switching to <a href="http://en.wikipedia.org/wiki/Apache_Subversion">SVN</a> with a colleague; he suggested using <a href="http://en.wikipedia.org/wiki/Git_%28software%29">Git</a> instead. Since, apparently, it can be used as peer-to-peer without a central server (we just have a 3-developer team). </p>\n\n<p>I have not been able to find anything about tools that integrate Git with Visual Studio, though - does such a thing exist? </p>\n\n<p>What technologies are available for using Git with Visual Studio? And what do I need to know about how they differ before I begin?</p>\n'
p247
sg16
VIn Jan 2013, Microsoft announced that they are adding full Git support into\u000aall their ALM products. They have published a plugin for Visual Studio 2012\u000athat adds Git source control integration. Alternatively, there is a project\u000acalled Git Extensions that includes add-ins for Visual Studio 2005, 2008, 2010\u000aand 2012, as well as Windows Explorer integration. It's regularly updated and\u000ahaving used it on a couple of projects, I've found it very useful. Another\u000aoption is Git Source Control Provider.\u000a\u000a
p248
sg18
I1469556937
sg19
I507343
sg20
I01
sg21
I01
sg22
I507453
sbsS'12567984'
p249
(iQuestion
Question
p250
(dp251
g4
I01
sg5
I315
sg6
(lp252
Vasp.net-mvc
p253
aVvisual-studio
p254
aVvisual-studio-2012
p255
aViis-express
p256
aVcassini
p257
asg11
VVisual Studio Debugging/Loading Very Slow
p258
sg13
I443
sg14
S'Body too long: deleted.'
p259
sg16
VHere is how I solved the "slow symbol loading" problem in Visual Studio 2012:\u000a* Go to Tools -> Options -> Debugging -> General * CHECK the checkmark next to\u000a"Enable Just My Code". * Go to Tools -> Options -> Debugging -> Symbols *\u000aClick on the "..." button and create/select a new folder somewhere on your\u000alocal computer to store cached symbols. I named mine "Symbol caching" and put\u000ait in Documents -> Visual Studio 2012. * Click on "Load all symbols" and wait\u000afor the symbols to be downloaded from Microsoft's servers, which may take a\u000awhile. **Note that Load all symbols button is only available while\u000adebugging.** * UNCHECK the checkmark next to "Microsoft Symbol Servers" to\u000aprevent Visual Studio from remotely querying the Microsoft servers. * Click\u000a"OK". From now on, symbol loading should be much faster. Note that if you make\u000aany changes/downloads to Microsoft assemblies, you may need to go back into\u000athe Symbols dialog box and "Load all symbols" again.\u000a\u000a
p260
sg18
I1476273752
sg19
I12567984
sg20
I01
sg21
I01
sg22
I14115731
sbsS'2538149'
p261
(iQuestion
Question
p262
(dp263
g4
I01
sg5
I61
sg6
(lp264
Vc++
p265
aVvisual-studio-2010
p266
aVvisual-studio
p267
aVversion-control
p268
aVignore
p269
asg11
VWhat should be contained in a global source code control ignore pattern for Visual Studio 2010?
p270
sg13
I72
sg14
S"<p>After installing and using Visual Studio 2010, I'm seeing some newer file types (at least with C++ projects ... don't know about the other types) as compared to 2008.  e.g. .sdf, .opensdf, which I guess are the replacement for ncb files with Intellisense info stored in SQL Server Compact files?  I also notice .log files are generated, which appear to be build logs.</p>\n\n<p>Given this, what's safe to add to my global ignore pattern?  Off the bat, I'd assume .sdf, .opensdf, but what else?</p>\n"
p271
sg16
VFor C++ projects, you should be fine ignoring the following files: * *.sdf and\u000a*.opensdf (temporary file opened only while .vcxproj/.sln is loaded to Visual\u000aStudio IDE) * *.suo * *.vcxproj.user * ipch folder, if your project uses Pre-\u000acompiled Headers (PCH); it is a storage for Intellisense compiler which can\u000anow utilise PCH for better performance For C# projects, it's also a good idea\u000ato ignore bin and obj directories, and *.suo too.\u000a\u000a
p272
sg18
I1474393957
sg19
I2538149
sg20
I01
sg21
I01
sg22
I2539084
sbsS'314095'
p273
(iQuestion
Question
p274
(dp275
g4
I01
sg5
I75
sg6
(lp276
Vvisual-studio
p277
aVkeyboard-shortcuts
p278
aVcustomization
p279
asg11
VMake Visual Studio understand CamelCase when hitting ctrl and cursor keys
p280
sg13
I96
sg14
S'<p><strong>Is there a way that I can configure Visual Studio 2008 to understand CamelCase?</strong>  Specifically, I\'d like to be able to get <code>ctrl + right</code> or <code>left</code> cursor to take me to a subsection of a variable or type name.</p>\n\n<p>i.e., if my cursor was at the start of this line:</p>\n\n<pre><code>LongNamedExampleClass longNamed = new LongNamedExampleClass();\n</code></pre>\n\n<p>and I hit <code>ctrl + right</code>, I\'d like to jump to "<code>Named</code>" in the class name, rather than the start of the variable name.  If I hit it again, I\'d like to go to "<code>Example</code>".  I hope that makes sense...</p>\n\n<p>I used this navigational feature in eclipse quite a lot, and find it difficult to unlearn something so ingrained.</p>\n'
p281
sg16
VThanks for those who suggested Resharper. Gives me another reason to love it\u000aeven more. Just to be specific about where this lives - JetBrains call it\u000a**CamelHumps** (cute) and you can switch it on using the menu: > **Resharper\u000a-> Options -> Environment -> Editor -> Editor Behavior -> Use CamelHumps** ...\u000ain older versions of Resharper, it is; > **Resharper -> Options -> Editor ->\u000aUse CamelHumps**\u000a\u000a
p282
sg18
I1470913803
sg19
I314095
sg20
I01
sg21
I01
sg22
I316933
sbsS'18836351'
p283
(iQuestion
Question
p284
(dp285
g4
I01
sg5
I128
sg6
(lp286
Vgit
p287
aVvisual-studio
p288
aVvisual-studio-2013
p289
aVbitbucket
p290
asg11
VVisual Studio 2013 and BitBucket
p291
sg13
I204
sg14
S"<p>Visual Studio 2013 apparently has some nice slick Git integration.</p>\n\n<p>However, after an hour of head-scratching with absolutely nothing making even the slightest bit of sense, I've only been able to create a local repository and despite cloning a remote bitbucket repository I simply cannot find a way to publish to my remote repository.</p>\n\n<p>I've used TFS, Subversion, Perforce and just about everything else, but this is completely baffling, with no instructions and a completely un-intuitive user interface.</p>\n\n<p>Any ideas anyone ?</p>\n"
p292
sg16
VJohn's statement that "you need Team Foundation Server" to work with BitBucket\u000ais not correct. I just published a project to BitBucket from Visual Studio\u000a2013 (preview version). Here's how. * Add solution to Source Control ![enter\u000aimage description here](http://i.stack.imgur.com/9II92.jpg) * Commit to local\u000aGit ![enter image description here](http://i.stack.imgur.com/X6wMu.jpg) * In\u000athe "Changes" area, click "Commits". This takes you to the dialog where you\u000acan publish to a Remote Repository. ![enter image description\u000ahere](http://i.stack.imgur.com/qjnSO.jpg) * Enter the URL to your BitBucket\u000arepository (must already exist in BitBucket and must be empty) and click\u000a"Publish" ![enter image description here](http://i.stack.imgur.com/ca4My.jpg)\u000a* Enter your BitBucket credentials when prompted. After the publish finishes\u000ayou'll get a results message like this. ![enter image description\u000ahere](http://i.stack.imgur.com/vrfzn.jpg) * Use the "Sync" button to update\u000aBitBucket with your local commits ![enter image description\u000ahere](http://i.stack.imgur.com/lKk26.jpg)\u000a\u000a
p293
sg18
I1474402235
sg19
I18836351
sg20
I01
sg21
I01
sg22
I19525451
sbsS'3640544'
p294
(iQuestion
Question
p295
(dp296
g4
I01
sg5
I79
sg6
(lp297
Vvisual-studio
p298
aVkeyboard-shortcuts
p299
asg11
VVisual Studio keyboard shortcut to display intellisense
p300
sg13
I110
sg14
S"<p>What's the keyboard shortcut for VS2005/2008 to display intellisense box if accidentally hit <kbd>ESC</kbd> and want the box come back again? Thanks.</p>\n"
p301
sg16
VCtrl \u005c\u005c\u005c\u005c\u005c\u005c\u005c\u005c\u005c\u005c\u005c\u005c\u005c\u005c\u005c\u005c\u005c\u005c\u005c\u005c\u005c\u005c\u005c\u005c\u005c\u005c\u005c\u005c\u005c\u005c\u005c\u005c\u005c\u005c\u005c\u005c\u005c\u005c\u005c\u005c\u005c\u005c\u005c\u005c\u005c\u005c\u005c\u005c\u005c\u005c\u005c\u005c\u005c\u005c\u005c\u005c\u005c\u005c\u005c\u005c\u005c\u005c\u005c\u005c\u005c\u005c\u005c\u005c\u005c\u005c\u005c\u005c\u005c\u000a\u005c\u005c\u005c\u005c\u005c\u005c\u005c\u005c\u005c\u005c\u005c\u005c\u005c\u005c\u005c\u005c\u005c\u005c\u005c\u005c\u005c\u005c\u005c\u005c\u005c\u005c\u005c\u005c\u005c\u005c\u005c\u005c\u005c\u005c\u005c\u005c\u005c\u005c\u005c\u005c\u005c\u005c\u005c\u005c\u005c\u005c\u005c\u005c\u005c\u005c\u005c\u005c\u005c\u005c\u005c\u005c\u005c\u005c\u005c\u005c\u005c\u005c\u005c\u005c\u005c\u005c\u005c\u005c\u005c\u005c\u005c\u005c \u005c\u005c\u005c\u005c\u005c\u000a\u005c\u005c\u005c\u005c\u005c\u005c\u005c\u005c\u005c\u005c\u005c\u005c\u005c\u005c\u005c\u005c\u005c\u005c\u005c\u005c\u005c\u005c\u005c\u005c\u005c\u005c\u005c\u005c\u005c\u005c\u005c\u005c\u005c\u005c\u005c\u005c\u005c\u005c\u005c\u005c\u005c\u005c\u005c\u005c\u005c\u005c\u005c\u005c\u005c\u005c\u005c\u005c\u005c\u005c\u005c\u005c\u005c\u005c\u005c\u005c\u005c\u005c\u005c\u005c\u005c\u005c\u005c\u005c\u005c\u005c\u005c\u005c\u005c\u005c\u005c\u005c\u005c\u005c\u000a\u005c\u005c\u005c\u005c\u005c\u005c\u005c\u005c\u005c\u005c\u005c\u005c\u005c\u005c\u005c\u005c\u005c\u005c\u005c\u005c\u005c\u005c\u005c\u005c\u005c\u005c\u005c\u005c\u005c\u005c\u005c\u005c\u005c\u005c\u005c\u005c\u005c\u005c\u005c\u005c\u005c\u005c\u005c\u005c\u005c\u005c\u005c\u005c\u005c\u005c\u005c\u005c\u005c\u005c\u005c\u005c\u005c\u005c\u005c\u005c \u005c\u005c\u005c\u005c\u005c\u005c\u005c\u005c\u005c \u005c\u005c\u005c\u005c\u005c\u005c\u005c\u000a\u005c\u005c\u005c\u005c\u005c\u005c\u005c\u005c\u005c\u005c\u005c\u005c\u005c\u005c\u005c\u005c\u005c\u005c\u005c\u005c\u005c\u005c\u005c\u005c\u005c\u005c\u005c\u005c\u005c\u005c\u005c\u005c\u005c\u005c\u005c\u005c\u005c\u005c\u005c\u005c\u005c\u005c\u005c\u005c\u005c\u005c\u005c\u005c\u005c\u005c\u005c\u005c\u005c\u005c\u005c\u005c\u005c\u005c\u005c\u005c\u005c\u005c\u005c\u005c\u005c\u005c\u005c\u005c\u005c\u005c\u005c\u005c\u005c\u005c\u005c\u005c\u005c\u005c\u000a\u005c\u005c\u005c\u005c\u005c\u005c\u005c\u005c\u005c\u005c\u005c\u005c\u005c\u005c\u005c\u005c\u005c\u005c\u005c\u005c\u005c\u005c\u005c\u005c\u005c\u005c\u005c\u005c\u005c\u005c\u005c\u005c\u005c\u005c\u005c\u005c\u005c\u005c\u005c\u005c\u005c\u005c\u005c\u005c\u005c\u005c\u005c\u005c\u005c\u005c\u005c\u005c\u005c\u005c\u005c\u005c\u005c\u005c\u005c\u005c\u005c\u005c\u005c\u005c\u005c\u005c\u005c\u005c\u005c\u005c\u000a\u005c\u005c\u005c\u005c\u005c\u005c\u005c\u005c\u005c\u005c\u005c\u005c\u005c\u005c\u005c\u005c\u005c\u005c\u005c\u005c\u005c\u005c\u005c\u005c\u005c\u005c\u005c\u005c\u005c\u005c\u005c\u005c\u005c\u005c\u005c\u005c\u005c\u005c\u005c\u005c\u005c\u005c\u005c\u005c\u005c\u005c\u005c\u005c\u005c\u005c\u005c\u005c\u005c\u005c+ Space or Ctrl\u000a\u005c\u005c\u005c\u005c\u005c\u005c\u005c\u005c\u005c\u005c\u005c\u005c\u005c\u005c\u005c\u005c\u005c\u005c\u005c\u005c\u005c\u005c\u005c\u005c\u005c \u005c\u005c\u005c\u005c\u005c\u005c\u005c\u005c\u005c\u005c\u005c\u005c\u005c\u005c\u005c\u005c\u005c\u005c\u005c\u005c\u005c\u005c\u005c\u005c\u005c\u005c\u005c\u005c\u005c\u005c\u005c\u005c\u005c\u005c\u005c\u005c\u005c\u005c\u005c\u005c\u005c \u005c\u005c\u005c\u005c\u005c\u005c\u005c\u005c\u005c\u005c\u000a\u005c\u005c\u005c\u005c\u005c\u005c\u005c\u005c\u005c\u005c\u005c\u005c\u005c\u005c\u005c\u005c\u005c\u005c\u005c\u005c\u005c\u005c\u005c\u005c\u005c\u005c\u005c\u005c\u005c\u005c\u005c\u005c\u005c\u005c\u005c\u005c\u005c\u005c\u005c\u005c\u005c\u005c\u005c\u005c\u005c\u005c\u005c\u005c\u005c\u005c\u005c\u005c\u005c\u005c\u005c\u005c\u005c\u005c\u005c\u005c\u005c\u005c\u005c\u005c\u005c\u005c\u005c\u005c\u005c\u005c\u005c\u005c\u005c\u005c\u005c\u005c\u005c\u005c\u000a\u005c\u005c\u005c\u005c\u005c\u005c\u005c\u005c\u005c\u005c\u005c\u005c\u005c\u005c\u005c\u005c\u005c\u005c\u005c\u005c\u005c\u005c\u005c\u005c\u005c\u005c\u005c\u005c\u005c\u005c\u005c\u005c\u005c\u005c\u005c\u005c\u005c\u005c\u005c\u005c\u005c\u005c\u005c\u005c\u005c\u005c\u005c\u005c\u005c\u005c\u005c\u005c\u005c\u005c\u005c\u005c\u005c\u005c\u005c\u005c\u005c\u005c\u005c\u005c\u005c\u005c\u005c \u005c\u005c\u005c\u005c\u005c\u005c\u005c\u005c\u005c\u005c\u000a\u005c\u005c\u005c\u005c\u005c\u005c\u005c\u005c\u005c\u005c\u005c\u005c\u005c\u005c\u005c\u005c\u005c\u005c\u005c\u005c\u005c\u005c\u005c\u005c\u005c\u005c\u005c\u005c\u005c\u005c\u005c\u005c\u005c\u005c\u005c\u005c\u005c\u005c\u005c\u005c\u005c\u005c\u005c\u005c\u005c\u005c\u005c\u005c\u005c\u005c\u005c\u005c\u005c\u005c\u005c\u005c\u005c\u005c\u005c\u005c\u005c\u005c\u005c\u005c\u005c\u005c\u005c\u005c\u005c\u005c\u005c\u005c\u005c\u005c\u005c\u005c\u005c\u005c\u000a\u005c\u005c\u005c\u005c\u005c\u005c\u005c\u005c\u005c\u005c\u005c\u005c\u005c\u005c\u005c\u005c\u005c\u005c\u005c\u005c\u005c\u005c\u005c \u005c\u005c\u005c\u005c\u005c\u005c\u005c\u005c\u005c\u005c\u005c\u005c\u005c\u005c\u005c\u005c\u005c\u005c\u005c\u005c\u005c\u005c\u005c\u005c\u005c\u005c\u005c\u005c\u005c\u005c\u005c\u005c\u005c\u005c\u005c\u005c\u005c\u005c\u005c\u005c\u005c \u005c\u005c\u005c\u005c\u005c\u005c\u005c\u005c\u005c\u005c\u005c\u005c\u000a\u005c\u005c\u005c\u005c\u005c\u005c\u005c\u005c\u005c\u005c\u005c\u005c\u005c\u005c\u005c\u005c\u005c\u005c\u005c\u005c\u005c\u005c\u005c\u005c\u005c\u005c\u005c\u005c\u005c\u005c\u005c\u005c\u005c\u005c\u005c\u005c\u005c\u005c\u005c\u005c\u005c\u005c\u005c\u005c\u005c\u005c\u005c\u005c\u005c\u005c\u005c\u005c\u005c\u005c\u005c\u005c\u005c\u005c\u005c\u005c\u005c\u005c\u005c\u005c\u005c\u005c\u005c\u005c\u005c\u005c\u005c\u005c\u005c\u005c\u005c\u005c\u005c\u005c\u000a\u005c\u005c\u005c\u005c\u005c\u005c\u005c\u005c\u005c\u005c\u005c\u005c\u005c\u005c\u005c\u005c\u005c\u005c\u005c\u005c\u005c\u005c\u005c\u005c\u005c\u005c\u005c\u005c\u005c\u005c\u005c\u005c\u005c\u005c\u005c\u005c\u005c\u005c\u005c\u005c+ J You can also go to Tools > Options\u000a> Environment > Keyboard and check what is assigned to these shortcuts. The\u000acommand name should be Edit.CompleteWord.\u000a\u000a
p302
sg18
I1471635571
sg19
I3640544
sg20
I01
sg21
I01
sg22
I3640565
sbsS'1098654'
p303
(iQuestion
Question
p304
(dp305
g4
I01
sg5
I37
sg6
(lp306
Vvisual-studio
p307
aVkeyboard-shortcuts
p308
aVproductivity
p309
asg11
VVisualStudio: Shortcut for when Renaming Variable
p310
sg13
I53
sg14
S'<p>In Visual Studio, when you rename a variable name in its definition, there\'s a little underline in the last letter so if you hover that, you\'ll get the option "Rename OldVaribleName to NewVariableName" and so rename all entries in that procedure of that variable.</p>\n\n<p>Is there a shortcut for that and not use the mouse?</p>\n'
p311
sg16
VThese are known as Smart Tags. You can use CTRL+. Shift+Alt+F10 is another\u000aoption.\u000a\u000a
p312
sg18
I1468333147
sg19
I1098654
sg20
I01
sg21
I01
sg22
I1098672
sbsS'4860933'
p313
(iQuestion
Question
p314
(dp315
g4
I01
sg5
I26
sg6
(lp316
Vc#
p317
aV.net
p318
aVvisual-studio
p319
aVformatting
p320
aVif-statement
p321
asg11
VHow to make Visual Studio not put { on a new line?
p322
sg13
I41
sg14
S"<p>If I have code like this</p>\n\n<pre><code>if(true){\n</code></pre>\n\n<p>and I add</p>\n\n<pre><code>}\n</code></pre>\n\n<p>it is transformed into</p>\n\n<pre><code>if (true)\n{\n}\n</code></pre>\n\n<p>but I would like it to stay in format</p>\n\n<pre><code>if (true) {\n}\n</code></pre>\n\n<p>Even if I copy code that has <code>if</code> like this, it is transformed into the longer version.</p>\n\n<p>P.S. I understand that it's a C++ and C# standard to use the longer version, however I do come from a different standard, and it's easier for me to use the shorter version.</p>\n\n<p><strong>I bet there is some formatter option that can be turned off or changed.</strong></p>\n"
p323
sg16
VGo to Tools->Options->Text Editor->C#->Formatting->New Lines Here there are a\u000alot of options. Remove the check on **all** options here to never put the open\u000abracket on a new line. **EDIT** The section New Line Options for expressions\u000adoes not relate to placement of code in conjunction with brackets, so those\u000ayou don't need to touch.\u000a\u000a
p324
sg18
I1474500345
sg19
I4860933
sg20
I01
sg21
I01
sg22
I4860956
sbsS'26110643'
p325
(iQuestion
Question
p326
(dp327
g4
I01
sg5
I89
sg6
(lp328
Vvisual-studio
p329
aVwix
p330
aVvisual-studio-2015
p331
asg11
VHow to Enable WiX Projects in Visual Studio 2015
p332
sg13
I127
sg14
S"<p>When I go the the New Project dialog in Visual Studio 2015, Windows Installer XML isn't available. How can I enable WiX projects in Visual Studio 2015?</p>\n"
p333
sg16
V**Update 2015-09-08:** WiX Toolset 3.10 is released with official support for Visual Studio 2015 editions. It is available for download from wixtoolset.org. You can manually enable Visual Studio 2015 compatibility with WiX 3.9 or earlier: 1\u005c\u005c\u005c\u005c\u005c\u005c\u005c\u005c. Copy C:\u005cProgram Files (x86)\u005cMicrosoft Visual Studio 12.0\u005cCommon7\u005cIDE\u005cExtensions\u005cMicrosoft\u005cWiX to C:\u005cProgram Files (x86)\u005cMicrosoft Visual Studio 14.0\u005cCommon7\u005cIDE\u005cExtensions\u005cMicrosoft\u005cWiX 2\u005c\u005c\u005c\u005c\u005c\u005c\u005c\u005c. Then execute as Administrator: > "C:\u005cProgram Files (x86)\u005cMicrosoft Visual Studio 14.0\u005cCommon7\u005cIDE\u005cdevenv" /setup ![enter image description here](http://i.stack.imgur.com/vGzIA.png) When you open Visual Studio 2015, WiX 3.9 and earlier projects will be compatible. ![enter image description here](http://i.stack.imgur.com/oGZEC.png) \u000a\u000a
p334
sg18
I1465737968
sg19
I26110643
sg20
I01
sg21
I01
sg22
I26110644
sbsS'31911433'
p335
(iQuestion
Question
p336
(dp337
g4
I01
sg5
I46
sg6
(lp338
Vc#
p339
aVvisual-studio
p340
aVbuild
p341
aVmsbuild
p342
aVvisual-studio-2015
p343
asg11
VVisual Studio 2015 project builds failed but no errors
p344
sg13
I36
sg14
S"<p>My project builds all fail but I'm not shown any errors. I tried cleaning and rebuilding, that didn't work. </p>\n\n<p>I changed the MSBuild output verbosity to 'Diagnostic' hoping it would help me identify the problem and now I'm stuck. Here's what the output looks like:</p>\n\n<pre><code>1&gt;Project 'ProjectMM.Data.Models' is not up to date. Input file 'C:\\Projects\\ProjectMM\\ProjectMM.Data.Models\\ProjectMM.Data.Models.csproj' is modified after output file 'C:\\Projects\\ProjectMM\\ProjectMM.Data.Models\\bin\\Debug\\ProjectMM.Data.Models.pdb'.\nAll packages are already installed and there is nothing to restore.\n1&gt;------ Build started: Project: ProjectMM.Data.Models, Configuration: Debug Any CPU ------\n2&gt;Project 'ProjectMM.Data' is not up to date. Input file 'C:\\Projects\\ProjectMM\\ProjectMM.Data\\ProjectMM.Data.csproj' is modified after output file 'C:\\Projects\\ProjectMM\\ProjectMM.Data\\bin\\Debug\\ProjectMM.Data.pdb'.\n2&gt;------ Build started: Project: ProjectMM.Data, Configuration: Debug Any CPU ------\n3&gt;Project 'ProjectMM' is not up to date. Input file 'c:\\projects\\projectmm\\projectmm\\app_start\\bundleconfig.cs' is modified after output file 'C:\\Projects\\ProjectMM\\ProjectMM\\bin\\ProjectMM.pdb'.\n3&gt;------ Build started: Project: ProjectMM, Configuration: Debug Any CPU ------\n========== Build: 0 succeeded, 3 failed, 0 up-to-date, 0 skipped ==========\n</code></pre>\n"
p345
sg16
VI have had the same problem and closing and re-opening Visual Studio clears it\u000aup. I had also tried Cleaning the solution and the Clean Failed as well. There\u000amay be other scenarios where this does not do the trick, but in my case\u000arestarting has resolved this for me.\u000a\u000a
p346
sg18
I1476276969
sg19
I31911433
sg20
I01
sg21
I01
sg22
I33188028
sbsS'17703004'
p347
(iQuestion
Question
p348
(dp349
g4
I01
sg5
I76
sg6
(lp350
Vc#
p351
aVvisual-studio
p352
aVsyntax-error
p353
aVresharper
p354
aVintellisense
p355
asg11
VVisual Studio displaying errors even if projects build
p356
sg13
I85
sg14
S'<p>I have a problem with Visual Studio 2013 on a C# solution. It displays totally random errors, but the projects build. Right now, I have 33 files with errors, and I can see red squiggly lines in all of them. </p>\n\n<p>I tried cleaning / rebuilding the solution, closing Visual Studio and even restarting my computer. I also made sure to do the steps described in <a href="http://stackoverflow.com/questions/5814783/debugging-runs-even-with-compilers-errors-in-visual-studio">Debugging runs even with compiler&#39;s errors in Visual Studio</a>. I can modify .cs files and I see the changes in the solution.</p>\n\n<p>Does anyone have an idea about why it does that?</p>\n'
p357
sg16
VApparently, emptying the ReSharper cache: > In menu, ReSharper > Options >\u000aEnvironment > General > Clear Caches and disabling and re-enabling ReSharper:\u000a> In menu, Tools > Options > ReSharper > General > Suspend / Restore did the\u000atrick for me. I am not sure if both operations are necessary, but they solved\u000amy problem.\u000a\u000a
p358
sg18
I1470426371
sg19
I17703004
sg20
I01
sg21
I01
sg22
I17704225
sbsS'3096600'
p359
(iQuestion
Question
p360
(dp361
g4
I01
sg5
I37
sg6
(lp362
Vvisual-studio
p363
aVvisual-studio-2010
p364
asg11
VIs there a way to zoom the Visual Studio text editor with a keyboard shortcut?
p365
sg13
I52
sg14
S'<p>Yesterday I found myself needing to zoom my Visual Studio 2010 text editor and was without a mouse (don\'t ask). Typically I do this by holding down <kbd>CTRL</kbd> and scrolling the mouse wheel. I also couldn\'t figure out how to tab into the area where you can specify your zoom level in the lower left hand corner of the text editor window.</p>\n\n<p><img src="http://i.stack.imgur.com/IGNxV.png" alt="zoom in the lower left corner of the text editor window"></p>\n\n<p>So I guess I have two questions.</p>\n\n<ol>\n<li>Is there a menu setting somewhere that I could have navigated to via the keyboard to set my zoom level? </li>\n<li>Even better is there a similar mechanism to zoom like holding <kbd>CTRL</kbd> and scrolling the mouse wheel?</li>\n</ol>\n'
p366
sg16
VI don't know if there is a menu option, but there are keyboard shortcuts to\u000aset the zoom level. ctrl+shift+. to Zoom In ctrl+shift+, to Zoom Out\u000a\u000a
p367
sg18
I1477592009
sg19
I3096600
sg20
I01
sg21
I01
sg22
I3096621
sbsS'2836947'
p368
(iQuestion
Question
p369
(dp370
g4
I01
sg5
I30
sg6
(lp371
Vvisual-studio
p372
aVbuild-process
p373
aVaudio
p374
asg11
VVisual Studio IDE: I want it to make a sound after it compiles so I can get back to work
p375
sg13
I65
sg14
S"<p>Would be a nice thing - do I have to write a script or can't I just tweak the build script to do some task?</p>\n"
p376
sg16
VWindows already has support for this, go to the Control Panel and open up\u000aSounds and Audio Devices. Under the Sounds tab there is a section for program\u000aevents. If you scroll down far enough one of the sections will be Microsoft\u000aVisual Studio. Then just pick the sound you want to hear for Build Succeeded\u000aand Build Failed. You will need to restart Visual Studio after choosing your\u000asounds.\u000a\u000a
p377
sg18
I1465927639
sg19
I2836947
sg20
I01
sg21
I01
sg22
I2836967
sbsS'57776'
p378
(iQuestion
Question
p379
(dp380
g4
I01
sg5
I589
sg6
(lp381
Vvisual-studio
p382
aVide
p383
asg11
VHow to "Add Existing Item" an entire directory structure in Visual Studio?
p384
sg13
I569
sg14
S'<p>I feel ridiculous for asking this because it seems like it should be so simple, however I have been unable to discover an answer to this question.</p>\n\n<p>I have a free standing set of files not affiliated with any C# project at all that reside in a complicated nested directory structure. I want to add them in that format to a different directory in an ASP.NET web application I am working on; while retaining the same structure. So, I copied the folder into the target location of my project and I tried to \xe2\x80\x9cadd existing  item\xe2\x80\x9d only to lose the previous folder hierarchy. Usually I have re-created the directories by hand, copied across on a one-to-one basis, and then added existing items. There are simply too many directories/items in this case. </p>\n\n<p>So how do you add existing directories and files in Visual Studio 2008?</p>\n'
p385
sg16
VDrag the files / folders from Windows Explorer into the Solution Explorer. It\u000awill add them all. Note this doesn't work if Visual Studio is in Administrator\u000aMode, because Windows Explorer is a User Mode process.\u000a\u000a
p386
sg18
I1475847072
sg19
I57776
sg20
I01
sg21
I01
sg22
I57778
sbsS'21096746'
p387
(iQuestion
Question
p388
(dp389
g4
I01
sg5
I200
sg6
(lp390
Vasp.net-mvc
p391
aVvisual-studio
p392
aVvisual-studio-2013
p393
aVasp.net-mvc-5
p394
asg11
VHow to add MVC5 to Visual Studio 2013?
p395
sg13
I267
sg14
S"<p>I'm starting a new project, and would like to give a try to MVC 5 (I have built a web app using MVC 4 before).</p>\n\n<p>In Visual Studio 2013, I click the New Project and navigate to Visual C# > Web > Visual Studio 2012 (even though I have installed VS 2013 it says 2012 in the menu) and on that list I only have MVC 4 application - not 5.</p>\n\n<p>The framework in the drop down menu is set to .NET Framework 4.5.1 - and still nothing.</p>\n\n<p>I've checked Tools > Extensions and Update and searched for MVC 5 - but it doesn't find anything official from Microsoft.</p>\n\n<p>How can I add MVC 5 to my Visual Studio 2013?</p>\n\n<p>Thank you</p>\n"
p396
sg16
VVisual Studio 2013 no longer has separate project types for different ASP.Net\u000afeatures. You must select .NET Framework 4.5 (or higher) in order to see the\u000aASP.NET Web Application template (For ASP.NET One). So just select Visual C# >\u000aWeb > ASP.NET Web Application, then select the MVC checkbox in the next step.\u000a_Note: Make sure not to select the C# > Web > **Visual Studio 2012** sub\u000afolder._\u000a\u000a
p397
sg18
I1470314275
sg19
I21096746
sg20
I01
sg21
I01
sg22
I21096806
sbsS'2819519'
p398
(iQuestion
Question
p399
(dp400
g4
I01
sg5
I54
sg6
(lp401
Vvisual-studio
p402
aVvisual-studio-2008
p403
asg11
VVisual Studio window which shows list of methods
p404
sg13
I49
sg14
S'<p>In Visual Studio, is there a window which shows list of methods in the active class? A small window like the Solution Explorer would be great. In Eclipse, there is one.</p>\n'
p405
sg16
VThere's a drop down just above the code window: ![alt\u000atext](http://i.stack.imgur.com/N1Shu.png) It's called **Navigation bar** and\u000acontains three drop downs: first drop down contains _project_, second _type_\u000aand **third _members_** (methods). You can use the shortcut Ctrl \u005c\u005c\u005c\u005c\u005c\u005c\u005c\u005c\u005c\u005c\u005c\u005c\u005c\u000a\u005c\u005c\u005c\u005c\u005c\u005c\u005c\u005c\u005c\u005c\u005c\u005c\u005c\u005c\u005c\u005c\u005c\u005c\u005c\u005c\u005c\u005c\u005c\u005c\u005c\u005c\u005c\u005c\u005c\u005c\u005c\u005c\u005c\u005c\u005c\u005c\u005c\u005c\u005c\u005c\u005c\u005c\u005c\u005c\u005c\u005c\u005c\u005c\u005c\u005c\u005c\u005c\u005c\u005c\u005c\u005c\u005c\u005c\u005c\u005c\u005c\u005c\u005c\u005c\u005c\u005c\u005c\u005c\u005c\u005c\u005c\u005c\u005c\u005c\u005c\u005c\u005c\u005c\u000a\u005c\u005c\u005c\u005c\u005c\u005c \u005c\u005c\u005c\u005c\u005c\u005c\u005c\u005c\u005c\u005c\u005c\u005c\u005c\u005c\u005c\u005c\u005c\u005c\u005c\u005c\u005c\u005c\u005c\u005c\u005c\u005c\u005c\u005c\u005c\u005c\u005c\u005c\u005c\u005c\u005c\u005c\u005c\u005c\u005c\u005c\u005c\u005c\u005c\u005c\u005c\u005c\u005c\u005c\u005c\u005c\u005c\u005c\u005c\u005c\u005c \u005c\u005c\u005c\u005c\u005c\u005c\u005c\u005c\u005c\u005c\u005c\u005c\u005c\u005c\u005c\u000a\u005c\u005c\u005c\u005c\u005c\u005c\u005c\u005c\u005c\u005c\u005c\u005c\u005c\u005c\u005c\u005c\u005c\u005c\u005c\u005c\u005c\u005c\u005c\u005c\u005c\u005c\u005c\u005c\u005c\u005c\u005c\u005c\u005c\u005c\u005c\u005c\u005c\u005c\u005c\u005c\u005c\u005c\u005c\u005c\u005c\u005c\u005c\u005c\u005c\u005c\u005c\u005c\u005c\u005c\u005c\u005c\u005c\u005c\u005c\u005c\u005c\u005c\u005c\u005c\u005c\u005c\u005c\u005c\u005c\u005c\u005c\u005c\u005c\u005c\u005c\u005c\u005c\u005c\u000a\u005c\u005c\u005c\u005c\u005c\u005c\u005c\u005c\u005c\u005c\u005c\u005c\u005c\u005c\u005c\u005c\u005c\u005c\u005c\u005c\u005c\u005c\u005c\u005c\u005c\u005c\u005c\u005c\u005c\u005c\u005c\u005c\u005c\u005c\u005c\u005c\u005c\u005c\u005c\u005c\u005c\u005c\u005c\u005c\u005c\u005c\u005c\u005c\u005c\u005c\u005c\u005c\u005c\u005c\u005c\u005c \u005c\u005c\u005c \u005c\u005c\u005c\u005c\u005c\u005c\u005c\u005c\u005c\u005c\u005c\u005c\u005c\u005c\u005c\u005c\u005c\u000a\u005c\u005c\u005c\u005c\u005c\u005c\u005c\u005c\u005c\u005c\u005c\u005c\u005c\u005c\u005c\u005c\u005c\u005c\u005c\u005c\u005c\u005c\u005c\u005c\u005c\u005c\u005c\u005c\u005c\u005c\u005c\u005c\u005c\u005c\u005c\u005c\u005c\u005c\u005c\u005c\u005c\u005c\u005c\u005c\u005c\u005c\u005c\u005c\u005c\u005c\u005c\u005c\u005c\u005c\u005c\u005c\u005c\u005c\u005c\u005c\u005c\u005c\u005c\u005c\u005c\u005c\u005c\u005c\u005c\u005c\u005c\u005c\u005c\u005c\u005c\u005c\u005c\u005c\u000a\u005c\u005c\u005c\u005c\u005c\u005c\u005c\u005c\u005c\u005c\u005c\u005c\u005c\u005c\u005c\u005c\u005c\u005c\u005c\u005c\u005c\u005c\u005c\u005c\u005c\u005c\u005c\u005c\u005c\u005c\u005c\u005c\u005c\u005c\u005c\u005c\u005c\u005c\u005c\u005c\u005c\u005c\u005c\u005c\u005c\u005c\u005c\u005c\u005c\u005c\u005c\u005c\u005c\u005c\u005c\u005c\u005c\u005c\u005c\u005c \u005c\u005c\u005c\u005c\u005c\u005c\u005c\u005c\u005c\u005c\u005c\u005c\u005c\u005c\u005c\u005c\u005c\u000a\u005c\u005c\u005c\u005c\u005c\u005c\u005c\u005c\u005c\u005c\u005c\u005c\u005c\u005c\u005c\u005c\u005c\u005c\u005c\u005c\u005c\u005c\u005c\u005c\u005c\u005c\u005c\u005c\u005c\u005c\u005c\u005c\u005c\u005c\u005c\u005c\u005c\u005c\u005c\u005c\u005c\u005c\u005c\u005c\u005c\u005c\u005c\u005c\u005c\u005c\u005c\u005c\u005c\u005c\u005c\u005c\u005c\u005c\u005c\u005c\u005c\u005c\u005c\u005c\u005c\u005c\u005c\u005c\u005c\u005c\u005c\u005c\u005c\u005c\u005c\u005c\u005c\u005c\u000a\u005c\u005c\u005c\u005c\u005c\u005c\u005c\u005c\u005c\u005c\u005c\u005c\u005c\u005c\u005c\u005c\u005c\u005c\u005c\u005c\u005c\u005c\u005c\u005c\u005c\u005c\u005c\u005c\u005c\u005c\u005c\u005c\u005c\u005c\u005c\u005c\u005c\u005c\u005c\u005c\u005c\u005c\u005c\u005c\u005c\u005c\u005c\u005c\u005c\u005c\u005c\u005c\u005c\u005c \u005c\u005c\u005c\u005c\u005c\u005c\u005c\u005c\u005c\u005c\u005c\u005c\u005c\u005c\u005c\u005c\u005c\u005c\u005c\u005c\u005c\u005c\u005c\u000a\u005c\u005c\u005c\u005c\u005c\u005c\u005c\u005c\u005c\u005c\u005c\u005c\u005c\u005c\u005c\u005c\u005c\u005c\u005c\u005c\u005c\u005c\u005c\u005c\u005c\u005c\u005c\u005c\u005c\u005c\u005c\u005c\u005c\u005c\u005c\u005c\u005c\u005c\u005c\u005c\u005c\u005c\u005c\u005c\u005c\u005c\u005c\u005c\u005c\u005c\u005c\u005c\u005c\u005c\u005c\u005c\u005c\u005c\u005c\u005c\u005c\u005c\u005c\u005c\u005c\u005c\u005c\u005c\u005c\u005c\u005c\u005c\u005c\u005c\u000a\u005c\u005c\u005c\u005c\u005c\u005c\u005c\u005c\u005c\u005c\u005c\u005c\u005c\u005c\u005c\u005c\u005c\u005c\u005c\u005c\u005c\u005c\u005c\u005c\u005c\u005c\u005c\u005c\u005c\u005c\u005c\u005c\u005c\u005c\u005c\u005c\u005c\u005c\u005c\u005c\u005c\u005c\u005c\u005c\u005c\u005c\u005c\u005c\u005c\u005c\u005c\u005c\u005c\u005c\u005c \u005c\u005c\u005c\u005c\u005c\u005c\u005c\u005c\u005c\u005c\u005c\u005c\u005c\u005c\u005c\u005c\u005c\u005c\u005c\u005c\u005c\u005c\u000a\u005c\u005c\u005c\u005c\u005c\u005c\u005c\u005c\u005c\u005c\u005c\u005c\u005c\u005c\u005c\u005c\u005c\u005c\u005c\u005c\u005c\u005c\u005c\u005c\u005c\u005c\u005c\u005c\u005c\u005c\u005c\u005c\u005c\u005c\u005c\u005c\u005c\u005c\u005c\u005c\u005c\u005c\u005c\u005c\u005c\u005c\u005c\u005c\u005c\u005c\u005c\u005c\u005c\u005c\u005c\u005c\u005c\u005c\u005c\u005c\u005c\u005c\u005c\u005c\u005c\u005c\u005c\u005c\u005c\u005c\u005c\u005c\u005c\u005c\u005c\u005c\u005c\u005c\u000a\u005c\u005c\u005c\u005c\u005c\u005c\u005c\u005c\u005c\u005c\u005c\u005c\u005c\u005c\u005c\u005c\u005c\u005c\u005c\u005c\u005c\u005c\u005c\u005c\u005c\u005c\u005c\u005c\u005c\u005c\u005c\u005c\u005c\u005c\u005c\u005c\u005c\u005c\u005c\u005c\u005c\u005c\u005c\u005c\u005c\u005c\u005c\u005c\u005c\u005c\u005c\u005c\u005c\u005c\u005c \u005c\u005c\u005c\u005c\u005c\u005c\u005c\u005c\u005c\u005c\u005c\u005c\u005c\u005c\u005c\u005c\u005c\u005c\u005c\u005c\u005c\u005c\u000a\u005c\u005c\u005c\u005c\u005c\u005c\u005c\u005c\u005c\u005c\u005c\u005c\u005c\u005c\u005c\u005c\u005c\u005c\u005c\u005c\u005c\u005c\u005c\u005c\u005c\u005c\u005c\u005c\u005c\u005c\u005c\u005c\u005c\u005c\u005c\u005c\u005c\u005c\u005c\u005c\u005c\u005c\u005c\u005c\u005c\u005c\u005c\u005c\u005c\u005c\u005c\u005c\u005c\u005c\u005c\u005c\u005c\u005c\u005c\u005c\u005c\u005c+ F2 (move focus\u000ato the _project_ drop down) and press Tab twice (move focus to the third drop\u000adown) to focus it, down arrow will expand the list. Full size image\u000a\u000a
p406
sg18
I1468856184
sg19
I2819519
sg20
I01
sg21
I01
sg22
I2819532
sbsS'3871270'
p407
(iQuestion
Question
p408
(dp409
g4
I01
sg5
I151
sg6
(lp410
Vc#
p411
aVvisual-studio
p412
aVproperties
p413
aVcode-snippets
p414
aVshortcut
p415
asg11
VShortcut to create properties in Visual Studio?
p416
sg13
I318
sg14
S'<p>I have seen some people creating properties in C# really fast, but how they dod it?</p>\n\n<p>What shortcuts are available in Visual Studio (currently using Visual&nbsp;Studio&nbsp;2010) to create properties?</p>\n\n<p>I am using C#.</p>\n\n<p>For example,</p>\n\n<pre><code>public string myString {get;set;}\n</code></pre>\n'
p417
sg16
VYou could type "prop" and then press tab twice. That will generate the\u000afollowing. public TYPE Type { get; set; } Then you change "TYPE" and "Type":\u000apublic string myString {get; set;} You can also get the full property typing\u000a"propfull" and then tab twice. That would generate the field and the full\u000aproperty. private int myVar; public int MyProperty { get { return myVar;} set\u000a{ myVar = value;} }\u000a\u000a
p418
sg18
I1467901572
sg19
I3871270
sg20
I01
sg21
I01
sg22
I3871280
sbsS'2155930'
p419
(iQuestion
Question
p420
(dp421
g4
I01
sg5
I649
sg6
(lp422
Vc#
p423
aV.net
p424
aVvisual-studio
p425
aVdebugging
p426
aVbreakpoints
p427
asg11
VFixing "The breakpoint will not currently be hit. No symbols have been loaded for this document."
p428
sg13
I495
sg14
S"<p>C# desktop application on express edition. Worked then didn't work 5 seconds later.</p>\n\n<p>I tried the following.</p>\n\n<ul>\n<li>Ensure debug configuration, debug flag, and full debug info are set on all assemblies.</li>\n<li>Delete all bin and obj folders and all DLLs related to the project from my entire machine.</li>\n<li>Recreate projects causing the problem from scratch.</li>\n<li>Reboot.</li>\n</ul>\n\n<p>I have two WinForms projects in the solution. One of them loads the debug info, one doesn't. They both refer to the assembly I'm trying to get debug info on in exactly the same way in the project file. Any ideas?</p>\n\n<hr>\n\n<p>I want to add in here, mostly for myself when I come back to review this question, that symbols are not loaded until the assembly is loaded, and the assembly is not loaded until it is needed. If the breakpoint is in a library that is only used in one function in your main assembly, the symbols will not be loaded (and it will show the breakpoint as not being hit) until that function is called.</p>\n"
p429
sg16
VStart debugging, as soon as you've arrived at a breakpoint or used Debug >\u000aBreak All, use Debug > Windows > Modules. You'll see a list of all the\u000aassemblies that are loaded into the process. Locate the one you want to get\u000adebug info for. Right-click it and select Symbol Load Information. You'll get\u000aa dialog that lists all the directories where it looked for the .pdb file for\u000athe assembly. Verify that list against the actual .pdb location. Make sure it\u000adoesn't find an old one. In normal projects, the assembly and its .pdb file\u000ashould always have been copied by the IDE into the same folder as your .exe.\u000aThe bin\u005cDebug folder of your project. Make sure you remove one from the GAC if\u000ayou've been playing with it.\u000a\u000a
p430
sg18
I1478003269
sg19
I2155930
sg20
I01
sg21
I01
sg22
I2155997
sbsS'4662784'
p431
(iQuestion
Question
p432
(dp433
g4
I01
sg5
I108
sg6
(lp434
Vc#
p435
aV.net
p436
aVvb.net
p437
aVvisual-studio
p438
asg11
VIs there a way to navigate to real implementation of method behind an interface?
p439
sg13
I142
sg14
S'<p>In Visual Studio, when you right-click a method call, you go to the implementation of that method inside a class except if you access this method through an interface: in that case you go to the interface method not to the actual implementation.</p>\n\n<p>Is there a way / tips (key shortcut or anything) to access this actual implementation ? Otherwise you are stuck to add some comment just to remember where you did implement it that\'s really not productive and error prone !</p>\n\n<p>Update: interesting answers but I\'m not really satisfied because all are cumbersome. I will give a precise example:</p>\n\n<pre><code>IInterface iInterface = someObject;                        \niInterface.someMethod();\n</code></pre>\n\n<p>Actually if Visual Studio was just a little bit clever to look just one line above the method call it would see where\'s the real object is. And that would save me a lot of keystrokes and avoid to use "find all references" and then scan the lines with my tired eyes to see which line contain the right one :)</p>\n'
p440
sg16
VI do the following: 1) Right click on the method and click "View call\u000ahierarchy" (or shortcut Ctrl+K, Ctrl+T) 2) Expand the "Implements x" folder\u000awhich will then show you all the implementations of that method. Click on one\u000ato go there. Relatively quick and easy. Annoyingly though there doesn't seem\u000ato be an equivalent for the interface itself. * * * **update**: as of Visual\u000aStudio 2015 update 1, right click on a method and select go to implementation.\u000aYou can also map it to keyboard shortcut via Tools > Options > Environment >\u000aKeyboard and search for Edit.GoToImplementation command. The default shortcut\u000ais Ctrl+F12. (F12 will navigate to the interface). * * *\u000a\u000a
p441
sg18
I1473068824
sg19
I4662784
sg20
I01
sg21
I01
sg22
I13136480
sbsS'7781977'
p442
(iQuestion
Question
p443
(dp444
g4
I01
sg5
I107
sg6
(lp445
Vvisual-studio-2010
p446
aVvisual-studio
p447
aVbreakpoints
p448
asg11
VSee all breakpoints in Visual Studio 2010+
p449
sg13
I193
sg14
S'<p>Is there a window in Visual Studio 2010 and newer where I can see all the breakpoints that I have in my project or solution?</p>\n'
p450
sg16
VTry **Debug** -> **Windows** -> **Breakpoints**.\u000a\u000a
p451
sg18
I1470124996
sg19
I7781977
sg20
I01
sg21
I01
sg22
I7781988
sbsS'119578'
p452
(iQuestion
Question
p453
(dp454
g4
I01
sg5
I66
sg6
(lp455
Vc++
p456
aVvisual-studio
p457
aVvisual-c++
p458
asg11
VDisabling Warnings generated via _CRT_SECURE_NO_DEPRECATE
p459
sg13
I96
sg14
S'<p>What is the best way to disable the warnings generated via <code>_CRT_SECURE_NO_DEPRECATE</code> that allows them to be reinstated with ease and will work across Visual Studio versions?</p>\n'
p460
sg16
VIf you don't want to pollute your source code (after all this warning presents\u000aonly with Microsoft compiler), add _CRT_SECURE_NO_WARNINGS symbol to your\u000aproject settings via "Project"->"Properties"->"Configuration\u000aproperties"->"C/C++"->"Preprocessor"->"Preprocessor definitions". Also you can\u000adefine it just before you include a header file which generates this warning.\u000aYou should add something like this #ifdef _MSC_VER #define\u000a_CRT_SECURE_NO_WARNINGS #endif And just a small remark, make sure you\u000aunderstand what this warning stands for, and maybe, if you don't intend to use\u000aother compilers than MSVC, consider using safer version of functions i.e.\u000astrcpy_s instead of strcpy.\u000a\u000a
p461
sg18
I1474961256
sg19
I119578
sg20
I01
sg21
I01
sg22
I119752
sbsS'30285135'
p462
(iQuestion
Question
p463
(dp464
g4
I01
sg5
I38
sg6
(lp465
Vvisual-studio
p466
asg11
VWhat's the difference between Visual Studio Community and other, paid versions?
p467
sg13
I26
sg14
S"<p>What's missing in Visual Studio Community 2015? They say it's full-featured and <em>free</em>, but if that's the case, then why do/will they still sell Visual Studio Ultimate 2015 or Visual Studio Enterprise 2015 for 6 grand?</p>\n\n<p>Something is missing in the Community preview, right? And why is it called 'Community'? My code won't be synced across your devices like the new Windows 10 update system is, will it? (Kind of joking about that last part, and kind of not, too).</p>\n"
p468
sg16
VCheck the following: https://www.visualstudio.com/products/compare-visual-\u000astudio-products-vs Visual studio community is free version for students and\u000aother academics, individual developers, open-source projects, and small non-\u000aenterprise teams (see "Usage" section at bottom of linked page). While\u000aVSUltimate is for companies. You also get more things with paid versions!\u000a\u000a
p469
sg18
I1471162945
sg19
I30285135
sg20
I01
sg21
I01
sg22
I30285184
sbsS'5825867'
p470
(iQuestion
Question
p471
(dp472
g4
I01
sg5
I29
sg6
(lp473
Vc#
p474
aV.net
p475
aVvisual-studio
p476
aVvisual-studio-2010
p477
asg11
VRandom assembly references fail ("Are you missing a using directive or an assembly reference?")
p478
sg13
I58
sg14
S'<p>My application has a mixture of 3.5 and 4.0-targeted assemblies.  I\'m working on a new Windows service targeting 4.0 and the project suddenly seems unable to see some of the other assemblies in the solution.  Meaning, on build, all references to these certain other assemblies produce the following error:</p>\n\n<blockquote>\n  <p>The type or namespace name \'[X]\' does not exist in the namespace \'[Y]\' (are you missing an assembly reference?)</p>\n</blockquote>\n\n<p>If I delete the project reference and re-add it, the red squigglies go away and Intellisense kicks in again like it\'s supposed to.  All of the other projects in the solution build without issue.  <strong>But as soon as I try to build this new project, the errors come back.</strong></p>\n\n<p>One of the failing references is to our Core.dll, which targets 3.5.  We recently added a CoreEx.dll targeting 4.0, with namespace sharing between the assemblies.  The new service can see CoreEx.dll but not Core.dll... i.e., when I begin typing <code>using Core.Utilities...</code> Intellisense picks up on the smaller set of namespaces from CoreEx.dll but does not show any that appear only in Core.dll.  I\'m pretty sure the solution built successfully after adding this, but it\'s a notable recent change.</p>\n\n<p>Another failing reference is to our core Data.dll which holds a bunch of datasets and Entity Framework stuff.  This one was recently migrated to 4.0.  Again, I\'m almost positive the solution built after migrating the project, but it\'s worth mentioning.</p>\n\n<p>The last failing reference is an assembly that uses the namespace one level "up" from the service.  E.g., the problematic project is based out of namespace <code>ProductName.Component.ComponentService</code> and it is unable to see the project based out of namespace <code>ProductName.Component</code>.  This one was recently created along with the problematic project and also targets 4.0.</p>\n\n<p>As you can see, there doesn\'t seem to be any rhyme or reason to which assembly references are failing... and the problematic project can successfully reference <em>some</em> of the other assemblies in the solution.  I\'ve tried cleaning, re-building, restarting Visual Studio... nothing has fixed it permanently.  What could be causing this?</p>\n'
p479
sg16
VCheck the target platform of the new project and make sure it's not targeting\u000a.NET 4 Client Profile. If it is, change it to regular .NET 4\u000a\u000a
p480
sg18
I1466590950
sg19
I5825867
sg20
I01
sg21
I01
sg22
I5826386
sbsS'21027'
p481
(iQuestion
Question
p482
(dp483
g4
I01
sg5
I186
sg6
(lp484
Vvisual-studio
p485
asg11
VChanging Ctrl + Tab behavior for moving between documents in Visual Studio
p486
sg13
I132
sg14
S"<p>Is it possible to change how <kbd>Ctrl</kbd> + <kbd>Tab</kbd> and <kbd>Shift</kbd> + <kbd>Ctrl</kbd> + <kbd>Tab</kbd> work in Visual Studio? I have disabled the popup navigator window, because I only want to switch between items in the tab control. My problem is the inconsistency of what switching to the next and previous document do.</p>\n\n<p>Every other program that uses a tab control for open document I have seen uses <kbd>Ctrl</kbd> + <kbd>Tab</kbd> to move from left to right and <kbd>Shift</kbd> + <kbd>Ctrl</kbd> + <kbd>Tab</kbd> to go right to left. Visual Studio breaks this with its jump to the last tab selected. You can never know what document you will end up on, and it is never the same way twice. </p>\n\n<p>It is very counterintuitive. Is this a subtle way to encourage everyone to only ever have two document open at once?</p>\n\n<hr>\n\n<p>Let's say I have a few files open. I am working in one, and I need to see what is in the next tab to the right. In every other single application on the face of the Earth, <kbd>Ctrl</kbd> + <kbd>Tab</kbd> will get me there. But in Visual Studio, I have no idea which of the other tabs it will take me to. If I only ever have two documents open, this works great. As soon as you go to three or more, all bets are off as to what tab Visual Studio has decided to send you to. </p>\n\n<p>The problem with this is that I shouldn't have to think about the tool, it should fade into the background, and I should be thinking about the task. The current tab behavior keeps pulling me out of the task and makes me have to pay attention to the tool.</p>\n"
p487
sg16
VIn Visual Studio 2015 (as well as previous versions of VS, but you must\u000ainstall Productivity Power Tools if you're using VS2013 or below), there are\u000atwo new commands in Visual Studio: _Window.NextTab_ and _Window.PreviousTab_\u000aJust go remap them from Ctrl+Alt+PageUp/Ctrl+Alt+PageDown to\u000aCtrl+Tab/Ctrl+Shift+Tab in: Menu _Tools_ -> _Options_ -> _Environment_ ->\u000a_Keyboard_ Note: In earlier versions such as Visual Studio 2010,\u000aWindow.NextTab and Window.PreviousTab were named _Window.NextDocumentWellTab_\u000aand _Window.PreviousDocumentWellTab_.\u000a\u000a
p488
sg18
I1467921149
sg19
I21027
sg20
I01
sg21
I01
sg22
I4099033
sbsS'19913313'
p489
(iQuestion
Question
p490
(dp491
g4
I01
sg5
I99
sg6
(lp492
Vvisual-studio
p493
aVsearch
p494
aVcommand
p495
aVvisual-studio-2013
p496
aVctrl
p497
asg11
VHow can I turn off Visual Studio 2013 Preview?
p498
sg13
I179
sg14
S"<p>When I want to search files I use <kbd>Ctrl</kbd>+<kbd>,</kbd>. The search box pops up and then I start typing. But the built-in preview just grabs whatever I have typed and opens the file. Even though I am still typing. </p>\n\n<p>I am trying to open a file called <code>report_vaccine</code>, but I only get as far as <code>report</code> when the preview opens the first selected report. This has rendered this form of quick file searching pretty much useless, which is frustrating because we have hundreds of procs, and scrolling through and manually finding the file is a huge pain. </p>\n\n<p>If there is a way to turn off preview, I would be fine with that. This command working properly is waaay more important to me than a preview of the file to be opened.</p>\n\n<p>I don't have resharper. I think the command was like <kbd>Ctrl</kbd>+<kbd>Shift</kbd>+<kbd>t</kbd>.  </p>\n"
p499
sg16
VFrom the menu go to Tools -> Options then navigate to Environment -> Tabs and\u000aWindows and uncheck the Preview Tab checkboxes.\u000a\u000a
p500
sg18
I1476886784
sg19
I19913313
sg20
I01
sg21
I01
sg22
I19914461
sbsS'236517'
p501
(iQuestion
Question
p502
(dp503
g4
I01
sg5
I59
sg6
(lp504
Vvisual-studio
p505
asg11
VHow can I make Visual Studio wrap lines at 80 characters?
p506
sg13
I39
sg14
S'<p>Is there any way to make Visual Studio word-wrap at 80 characters?  I\'m using VS2008.</p>\n\n<p><a href="http://stackoverflow.com/questions/84209/vertical-line-after-a-certain-amount-characters-in-visual-studio">This post is loosely related.</a></p>\n'
p507
sg16
VTools >> Options >> Text Editor >> All Languages >> General >> Select Word\u000aWrap. I dont know if you can select a specific number of columns?\u000a\u000a
p508
sg18
I1471336241
sg19
I236517
sg20
I01
sg21
I01
sg22
I236529
sbsS'1775865'
p509
(iQuestion
Question
p510
(dp511
g4
I01
sg5
I272
sg6
(lp512
Vc
p513
aVvisual-studio
p514
aVconsole
p515
asg11
VPreventing console window from closing on Visual Studio C/C++ Console application
p516
sg13
I275
sg14
S"<p>This is a probably an embarasing question as no doubt the answer is blindingly obvious.</p>\n\n<p>I've used Visual Studio for years, but this is the first time I've done any 'Console Application' development.</p>\n\n<p>When I run my application the console window pops up, the program output appears and then the window closes as the application exits.</p>\n\n<p>Is there a way to either keep it open until I have checked the output, or view the results after the window has closed?</p>\n"
p517
sg16
VIf you run without debugging (Ctrl+F5) then by default it prompts your to\u000apress return to close the window. If you want to use the debugger, you should\u000aput a breakpoint on the last line.\u000a\u000a
p518
sg18
I1477148740
sg19
I1775865
sg20
I01
sg21
I01
sg22
I1775870
sbsS'4065815'
p519
(iQuestion
Question
p520
(dp521
g4
I01
sg5
I184
sg6
(lp522
Vvisual-studio-2010
p523
aVvisual-studio
p524
asg11
VHow to Turn Off Showing Whitespace Characters in Visual Studio IDE
p525
sg13
I352
sg14
S'<p>I don\'t know what I did but I don\'t know how to get rid of those arrows on the left.</p>\n\n<p><img src="http://i.stack.imgur.com/xBwEu.jpg" alt="alt text"></p>\n'
p526
sg16
VCTRL-R, CTRL-W : Toggle showing whitespace or under the Edit Menu: * Edit ->\u000aAdvanced -> View White Space [BTW, it also appears you are using Tabs. It's\u000acommon practice to have the IDE turn Tabs into spaces (often 4), via Options.]\u000a\u000a
p527
sg18
I1468338268
sg19
I4065815
sg20
I01
sg21
I01
sg22
I4065828
sbsS'4012732'
p528
(iQuestion
Question
p529
(dp530
g4
I01
sg5
I70
sg6
(lp531
Vc#
p532
aV.net
p533
aVvisual-studio-2010
p534
aVvisual-studio
p535
aVbuild
p536
asg11
VCan't change target platform to "any CPU"
p537
sg13
I114
sg14
S'<p>I work on an x86 pc and use .NET4.0 (same probelem with 3.5) in VS2010. When I make a new Project (e.g. WinFormsApp), the first thing I want to do is to change the target platform of the project/solution to "Any CPU".</p>\n\n<p>I do the following:</p>\n\n<blockquote>\n  <p>Project Properties -> build -> change TargetPlatform to "Any CPU"</p>\n</blockquote>\n\n<p>On top of the properties page the platform is still "Active (x86)", so I do</p>\n\n<blockquote>\n  <p>Solution Properties -> ConfigurationsMgr -> Platform -> new (since nothing but x86 is available) and create the solution platform "Any CPU".</p>\n</blockquote>\n\n<p>Now the project properties are "Active (Any CPU)" and I can change it back and forth as I like.</p>\n\n<p>And now the Problem: When I add a new Project, it is again set to "Active (x86)" and I -again - can\'t change the project settings. In the SolutionProperties -> ConfigurationManager for this second project, the "Any CPU" platform is not available and I can\'t add a new one, since it tells me that a solution platform for AnyCPU is already there...</p>\n\n<p>What am I doing wrong? Can it be so hard to set a newly created project to AnyCPU?</p>\n'
p538
sg16
VIn the configuration Manager, you can add a new platform for your project.\u000aHowever, you need to uncheck the "Create new solution platforms" if you\u000aalready added the platform for your solution, otherwise you will indeed get\u000athe warning that the solution platform is already there.\u000a\u000a
p539
sg18
I1476732265
sg19
I4012732
sg20
I01
sg21
I01
sg22
I4014338
sbsS'3873702'
p540
(iQuestion
Question
p541
(dp542
g4
I01
sg5
I76
sg6
(lp543
Vc#
p544
aVvisual-studio
p545
aVconstructor
p546
aVcode-snippets
p547
aVshortcut
p548
asg11
VCode-snippet or short cut to create a constructor in Visual Studio
p549
sg13
I160
sg14
S"<p>What is the code-snippet or short cut to create a constructor in Visual Studio?</p>\n\n<p>Visual Studio 2010 and C#.</p>\n\n<p>I've used before but I can't remember.</p>\n"
p550
sg16
VType "ctor" and hit TAB, this will create the default constructor for the\u000aclass you are in public MyClass() { } On your previous question someone gave\u000aan answer where you can see all the code-snippets. **UPDATE** It seems that in\u000asome cases you will have to press TAB twice. Thanks @ho1.\u000a\u000a
p551
sg18
I1473317248
sg19
I3873702
sg20
I01
sg21
I01
sg22
I3873731
sbsS'13375961'
p552
(iQuestion
Question
p553
(dp554
g4
I01
sg5
I115
sg6
(lp555
Vvisual-studio
p556
aVvisual-studio-2012
p557
aVintellisense
p558
asg11
VVisual Studio 2012 - Intellisense sometimes disappearing / broken
p559
sg13
I160
sg14
S"<p>My colleagues and I are using VS2012 for some weeks now. Sometimes after working several hours the intellisense is broken. After closing all open tabs it works again.</p>\n\n<p>Are there more people out there having the same problem? It can't be an extension problem because I have the same problem at home. Maybe there is a workaround for this?</p>\n"
p560
sg16
S"<p>These are the few top solutions for getting Visual Studio 2012 intellisense back on track try them one by one, hope one of them will solve the problem:</p>\n\n<p><code>When the problem occurs next time follow these:</code>\n<em>start from #1 and Move to next when the earlier one doesn't work for you</em></p>\n\n<p>1: <code>Close all the tabs</code> and open your file again. <em>(Thanks to russds)</em></p>\n\n<p>2: <code>Clean the Build</code> > <code>Close the Solution</code> > <code>Restart Visual Studio</code> > <code>Open the Solution</code> again</p>\n\n<p>3: Goto:  <code>Edit</code> > <code>IntelliSense</code> > <code>Refresh Local Cache</code></p>\n\n<p>4:  Close Visual Studio 2012 and delete this folder: <code>%AppData%\\Microsoft\\VisualStudio\\11.0\\ReflectedSchemas</code></p>\n\n<p>5: Goto: <code>TOOLS</code> > <code>Import and Export Settings</code> > <code>Reset all settings</code></p>\n\n<p>6: Delete <code>.suo</code> file in the project folder. <em>(Thanks to Jason Steele)</em></p>\n\n<p>I am hopeful your problem will get solved by any of the above six steps.\nBut if it doesn\xe2\x80\x99t after all this than I think you should consider reinstalling your VS2012.</p>\n"
p561
sg150
I01
sg18
I1475863019
sg19
I13375961
sg20
I01
sg21
I01
sg22
I13376771
sbsS'60113'
p562
(iQuestion
Question
p563
(dp564
g4
I01
sg5
I79
sg6
(lp565
Vasp.net
p566
aVvisual-studio
p567
aVvisual-studio-2008
p568
asg11
VHTTPS with Visual Studio's built-in ASP.NET Development Server
p569
sg13
I102
sg14
S"<p>Is there a way to access Visual Studio's built-in ASP.NET Development Server over HTTPS?</p>\n"
p570
sg16
VAs of now we can use IIS Express to develope and test in SSL. Here is a\u000acomplete article explaning how to use IIS Express and Visual Studion 2010 to\u000adevelope websites in SSL ![enter image description\u000ahere](http://i.stack.imgur.com/jvqeG.png) **Next** ![enter image description\u000ahere](http://i.stack.imgur.com/3didG.png) **Then you will get this** ![enter\u000aimage description here](http://i.stack.imgur.com/Oh154.png) Working with SSL\u000aat Development Time is easier with IISExpress Introducing IIS Express\u000a\u000a
p571
sg18
I1469115763
sg19
I60113
sg20
I01
sg21
I01
sg22
I8817682
sbsS'3436222'
p572
(iQuestion
Question
p573
(dp574
g4
I01
sg5
I114
sg6
(lp575
Vvisual-studio
p576
aVvisual-studio-2010
p577
aVkeyboard-shortcuts
p578
asg11
VHow to locate a file in Solution Explorer in Visual Studio 2010?
p579
sg13
I141
sg14
S"<p>I have a huge solution with multiple projects. Sometime I need to navigate to a file in <strong>Solution Explorer</strong>. Using the VS 2010 '<strong>Navigate To</strong>' feature I can open any file by name in Visual Studio 2010 but I want to be able to select the file in <strong>Solution Explorer</strong> as well?</p>\n"
p580
sg16
VThere's an option to track the active (open and viewed) item in the solution\u000aexplorer. If the file is in view, the file in the solution explorer will be\u000aselected. Tools->Options->Projects and Solutions->Track Active Item in\u000aSolution Explorer\u000a\u000a
p581
sg18
I1475019920
sg19
I3436222
sg20
I01
sg21
I01
sg22
I3436231
sbsS'598129'
p582
(iQuestion
Question
p583
(dp584
g4
I01
sg5
I74
sg6
(lp585
V.net
p586
aVvisual-studio
p587
aVmigration
p588
aVgraph
p589
aVdependencies
p590
asg11
VDependency graph of Visual Studio projects
p591
sg13
I27
sg14
S"<p>I'm currently migrating a big solution (~70 projects) from VS 2005 + .NET 2.0 to VS 2008 + .NET 3.5. Currently I have VS 2008 + .NET 2.0.</p>\n\n<p>The problem is that I need to move projects one by one to new .NET framework ensuring that no .NET 2.0 project references .NET 3.5 project. Is there any tool that would give me a nice graph of project dependencies?</p>\n"
p592
sg16
VHave you tried NDepend? It'll shows you the dependencies and you can also\u000aanalyze the usability of your classes and methods. Their website:\u000ahttp://ndepend.com\u000a\u000a
p593
sg18
I1470881408
sg19
I598129
sg20
I01
sg21
I01
sg22
I598134
sbsS'31615057'
p594
(iQuestion
Question
p595
(dp596
g4
I01
sg5
I56
sg6
(lp597
Vvisual-studio
p598
aVrefactoring
p599
aVvisual-studio-2015
p600
asg11
VRefactor Menu Missing from Visual Studio 2015
p601
sg13
I62
sg14
S'<p>I am having trouble finding the right-click context menu in Visual Studio 2015. I know that nothing is wrong with my project or the file I am working. I can find the right-click context refactor menu in Visual Studio 2013. However, in Visual Studio 2015 there isn\'t a refactor context menu in the right-click context menu.</p>\n\n<p>Where did it go? How do I get it back?</p>\n\n<p>Your suggestion cannot include "Edit->Refactor".</p>\n\n<p><em>Edit</em>\nI have tried to reset my visual studio settings back to default using Tools->Import and Export Settings and that didn\'t bring the menu back either. </p>\n'
p602
sg16
VSome of the refactoring tools have been relocated or at least accessible in a\u000adifferent manner than they were previously. Using the extract method refactor\u000aas an example, you can still utilize this function, it is just not done the\u000asame as before: ![Select parts to\u000aextract](http://i.stack.imgur.com/02w4Am.png) Right click ![Right\u000aclick](http://i.stack.imgur.com/vKwpQm.png) Quick actions ![Quick\u000aactions](http://i.stack.imgur.com/m1UVrm.png) Click extract Method ![Click\u000aextract method](http://i.stack.imgur.com/Ds7agm.png) I think they've changed\u000ait to feel more "ReSharper"ey. All of the functionality should still be there\u000ahowever. Here's more information on refactoring in VS2015 - hopefully this\u000ahelps! https://msdn.microsoft.com/en-us/library/719exd8s.aspx\u000a\u000a
p603
sg18
I1474380356
sg19
I31615057
sg20
I01
sg21
I01
sg22
I31615254
sbsS'18514642'
p604
(iQuestion
Question
p605
(dp606
g4
I01
sg5
I40
sg6
(lp607
Vvisual-studio
p608
aVvisual-studio-2012
p609
aVvisual-studio-2013
p610
aVresharper
p611
asg11
VResharper 8 - Quickfix shortcut Alt+Enter gone
p612
sg13
I98
sg14
S'<p>In Visual Studio 2012/2013, I want to reassign the Alt+Enter key combination to the "Quickfix" (triggering the menu from the light bulb) because it is not working anymore. I can\'t. I have tried the following (I am aware that some of the suggestions refer to VS 2010 and older R# versions):</p>\n\n<ul>\n<li>Tried to change manually in <code>Tools</code> - <code>Options</code> - <code>Keyboard</code>: the former ReSharper_QuickFix entry is gone, see <a href="http://i.stack.imgur.com/AjVqa.png">ReSharper_QuickFix gone</a></li>\n<li>Tried Resharper_AltEnter as suggested in <a href="http://stackoverflow.com/questions/17227312/what-is-the-name-of-the-resharpers-quick-fix-command">What is the name of the ReSharper&#39;s Quick Fix command</a> - nothing, no shortcut</li>\n<li>Switched back and forth settings in <code>ReSharper</code> -> <code>Options</code> -> <code>Keyboard &amp; Menus</code> as described in <a href="http://stackoverflow.com/questions/1596328/resharper-alt-enter-not-working">Resharper Alt Enter not working</a> - nothing</li>\n<li>Switched back and forth settings in <code>ReSharper</code> -> <code>Options</code> -> <code>IntelliSense</code> -> <code>General</code> as also described in <a href="http://stackoverflow.com/questions/1596328/resharper-alt-enter-not-working">Resharper Alt Enter not working</a> to no avail</li>\n<li>Tried other suggestions from the same page</li>\n<li>Sledgehammer approach: run devenv.exe /ResetSettings - nope</li>\n<li>Search SO and the web up and down - found nothing</li>\n</ul>\n\n<p>I have not yet had the nerve to re-install R# or even VS. </p>\n\n<p><strong>How can I get a standard set of R# keyboard shortcuts into Visual Studio?</strong> I\'d gladly wipe out everything that is there just to get back my Alt+Enter Quickfix..</p>\n'
p613
sg16
VPlease try this: * remove all mapping for Alt+Enter shortcut here Tools |\u000aOptions | Environment | Keyboard (to find out mapped actions, press Alt+Enter\u000ain "Press shortcut keys" field and look at the list in "Shortcut currently\u000aused by" dropdown); After removing: * Type ReSharper_AltEnter in "Show command\u000acontaining" field; * Select "Text Editor" in "Use new shortcut in" dropdown; *\u000aPress Alt+Enter in "Press shortcut keys" field | Assign; * Select "XAML UI\u000aDesigner" in "Use new shortcut in" dropdown; * Press Alt+Enter in "Press\u000ashortcut keys" field | Assign;\u000a\u000a
p614
sg18
I1471850138
sg19
I18514642
sg20
I01
sg21
I01
sg22
I19005476
sbsS'12066739'
p615
(iQuestion
Question
p616
(dp617
g4
I01
sg5
I113
sg6
(lp618
Vvisual-studio
p619
aVcomments
p620
aVvisual-studio-2012
p621
asg11
VWhat key shortcuts are to comment and uncomment code in Visual Studio 2012?
p622
sg13
I131
sg14
S'<p>There were <kbd>Ctrl</kbd>+<kbd>E</kbd>+<kbd>C</kbd> (comment) and <kbd>Ctrl</kbd>+<kbd>E</kbd>+<kbd>U</kbd> (uncomment) in older versions, or <kbd>Ctrl</kbd>+<kbd>K</kbd>+<kbd>C</kbd>  and <kbd>Ctrl</kbd>+<kbd>K</kbd>+<kbd>U</kbd>. But in VS 2012 I can\'t see key shortcuts (look at screenshot) ... Maybe should I enable those shortcuts anywhere???\n<img src="http://i.stack.imgur.com/0E9m8.png" alt="enter image description here"></p>\n'
p623
sg16
VKeyboard accelerators are configurable. You can find out which keyboard\u000aaccelerators are bound to a command in Tools -> Options on the Environment ->\u000aKeyboard page. These commands are named **Edit.CommentSelection** and\u000a**Edit.UncommentSelection**. (With my settings, these are bound to Ctrl+K,\u000aCtrl+C and Ctrl+K, Ctrl+U. I would guess that these are the defaults, at least\u000ain the C++ defaults, but I don't know for sure. The best way to find out is to\u000acheck your settings.)\u000a\u000a
p624
sg18
I1470919659
sg19
I12066739
sg20
I01
sg21
I01
sg22
I12066764
sbs.